BL51 BANKED LINKER/LOCATER V6.22.4.0                                                    06/02/2025  23:22:16  PAGE 1


BL51 BANKED LINKER/LOCATER V6.22.4.0, INVOKED BY:
D:\MCU\KEIL_V5\C51\BIN\BL51.EXE .\Objects\STARTUP.obj, .\Objects\main.obj, .\Objects\uart.obj, .\Objects\delay.obj, .\Ob
>> jects\eeprom.obj, .\Objects\oled.obj, .\Objects\beep.obj, .\Objects\encoder.obj, .\Objects\timer0.obj TO .\Objects\te
>> st PRINT (.\Listings\test.m51) RAMSIZE (256) DISABLEWARNING (16)


MEMORY MODEL: LARGE


INPUT MODULES INCLUDED:
  .\Objects\STARTUP.obj (?C_STARTUP)
  .\Objects\main.obj (MAIN)
  .\Objects\uart.obj (UART)
  .\Objects\delay.obj (DELAY)
  .\Objects\eeprom.obj (EEPROM)
  .\Objects\oled.obj (OLED)
  .\Objects\beep.obj (BEEP)
  .\Objects\encoder.obj (ENCODER)
  .\Objects\timer0.obj (TIMER0)
  D:\MCU\KEIL_V5\C51\LIB\C51L.LIB (?C_INIT)
  D:\MCU\KEIL_V5\C51\LIB\C51L.LIB (?C?CLDPTR)
  D:\MCU\KEIL_V5\C51\LIB\C51L.LIB (?C?CLDOPTR)
  D:\MCU\KEIL_V5\C51\LIB\C51L.LIB (?C?IMUL)
  D:\MCU\KEIL_V5\C51\LIB\C51L.LIB (?C?UIDIV)
  D:\MCU\KEIL_V5\C51\LIB\C51L.LIB (?C?ILDIX)
  D:\MCU\KEIL_V5\C51\LIB\C51L.LIB (?C?LMUL)
  D:\MCU\KEIL_V5\C51\LIB\C51L.LIB (?C?ULDIV)
  D:\MCU\KEIL_V5\C51\LIB\C51L.LIB (?C?ULCMP)
  D:\MCU\KEIL_V5\C51\LIB\C51L.LIB (?C?LSTXDATA)
  D:\MCU\KEIL_V5\C51\LIB\C51L.LIB (?C?LSTKXDATA)
  D:\MCU\KEIL_V5\C51\LIB\C51L.LIB (PRINTF)
  D:\MCU\KEIL_V5\C51\LIB\C51L.LIB (?C?CSTPTR)
  D:\MCU\KEIL_V5\C51\LIB\C51L.LIB (?C?PLDIXDATA)
  D:\MCU\KEIL_V5\C51\LIB\C51L.LIB (?C?PSTXDATA)
  D:\MCU\KEIL_V5\C51\LIB\C51L.LIB (?C?CCASE)


LINK MAP OF MODULE:  .\Objects\test (?C_STARTUP)


            TYPE    BASE      LENGTH    RELOCATION   SEGMENT NAME
            -----------------------------------------------------

            * * * * * * *   D A T A   M E M O R Y   * * * * * * *
            REG     0000H     0008H     ABSOLUTE     "REG BANK 0"
            DATA    0008H     0005H     UNIT         _DATA_GROUP_
                    000DH     0013H                  *** GAP ***
            BIT     0020H.0   0001H.1   UNIT         _BIT_GROUP_
            BIT     0021H.1   0000H.5   UNIT         ?BI?MAIN
            BIT     0021H.6   0000H.1   UNIT         ?BI?UART
            BIT     0021H.7   0000H.1   UNIT         ?BI?BEEP
            BIT     0022H.0   0000H.1   UNIT         ?BI?ENCODER
                    0022H.1   0000H.7                *** GAP ***
            IDATA   0023H     0001H     UNIT         ?STACK

            * * * * * * *  X D A T A   M E M O R Y  * * * * * * *
            XDATA   0000H     0040H     UNIT         ?XD?MAIN
            XDATA   0040H     0031H     UNIT         _XDATA_GROUP_
BL51 BANKED LINKER/LOCATER V6.22.4.0                                                  06/02/2025  23:22:16  PAGE 2


            XDATA   0071H     0014H     UNIT         ?XD?ENCODER
            XDATA   0085H     0012H     UNIT         ?XD?UART
            XDATA   0097H     0011H     UNIT         ?XD?OLED
            XDATA   00A8H     000AH     UNIT         ?XD?_OLED_SHOWNUM?OLED
            XDATA   00B2H     000AH     UNIT         ?XD?BEEP
            XDATA   00BCH     0008H     UNIT         ?XD?_OLED_SHOWCHINESE?OLED
            XDATA   00C4H     0004H     UNIT         ?XD?TIMER0
            XDATA   00C8H     0003H     UNIT         ?XD?_UARTSENDSTR?UART
            XDATA   00CBH     0001H     UNIT         ?XD?_OLED_POW?OLED

            * * * * * * *   C O D E   M E M O R Y   * * * * * * *
            CODE    0000H     0003H     ABSOLUTE     
            CODE    0003H     0008H     UNIT         ?PR?_UARTSEND?UART
            CODE    000BH     0003H     ABSOLUTE     
            CODE    000EH     000DH     UNIT         ?PR?IAPIDLE?EEPROM
            CODE    001BH     0003H     ABSOLUTE     
            CODE    001EH     0004H     UNIT         ?PR?ENCODER_INIT?ENCODER
                    0022H     0001H                  *** GAP ***
            CODE    0023H     0003H     ABSOLUTE     
            CODE    0026H     000AH     UNIT         ?PR?I2C_STOP?OLED
                    0030H     0003H                  *** GAP ***
            CODE    0033H     0003H     ABSOLUTE     
            CODE    0036H     001CH     UNIT         ?PR?UARTINIT?UART
                    0052H     0001H                  *** GAP ***
            CODE    0053H     0003H     ABSOLUTE     
            CODE    0056H     044FH     UNIT         ?CO?MAIN
            CODE    04A5H     0365H     UNIT         ?PR?PRINTF?PRINTF
            CODE    080AH     02CFH     UNIT         ?CO?OLED
            CODE    0AD9H     0286H     UNIT         ?C?LIB_CODE
            CODE    0D5FH     0204H     UNIT         ?PR?HANDLE_BUZZER?MAIN
            CODE    0F63H     012EH     UNIT         ?PR?_UPDATETIME?OLED
            CODE    1091H     00EBH     UNIT         ?PR?_OLED_SHOWCHAR?OLED
            CODE    117CH     00E8H     UNIT         ?PR?_PWM_SET?BEEP
            CODE    1264H     00DBH     UNIT         ?PR?HANDLE_ENCODER?MAIN
            CODE    133FH     00DBH     UNIT         ?PR?_OLED_SHOWNUM?OLED
            CODE    141AH     00D7H     UNIT         ?PR?HANDLE_KEYPRESS?MAIN
            CODE    14F1H     00D1H     UNIT         ?PR?INT2_ISR?ENCODER
            CODE    15C2H     00CAH     UNIT         ?PR?MAIN?MAIN
            CODE    168CH     00C3H     UNIT         ?PR?OLED_INIT?OLED
            CODE    174FH     00AAH     UNIT         ?C_INITSEG
            CODE    17F9H     0093H     UNIT         ?PR?_OLED_DRAWBMP?OLED
            CODE    188CH     008CH     UNIT         ?C_C51STARTUP
            CODE    1918H     008CH     UNIT         ?PR?UPDATEMODE?MAIN
            CODE    19A4H     007DH     UNIT         ?PR?_OLED_SHOWCHINESE?OLED
            CODE    1A21H     0072H     UNIT         ?PR?SHOWTIME?OLED
            CODE    1A93H     0070H     UNIT         ?PR?_OLED_SHOWSTRING?OLED
            CODE    1B03H     006BH     UNIT         ?PR?CHECK_INACTIVITY_SLEEP?MAIN
            CODE    1B6EH     0069H     UNIT         ?PR?HANDLE_COUNTDOWN?MAIN
            CODE    1BD7H     0069H     UNIT         ?PR?TM1_ISR?BEEP
            CODE    1C40H     0051H     UNIT         ?PR?TIMER0_ISR?TIMER0
            CODE    1C91H     0048H     UNIT         ?PR?UARTISR?UART
            CODE    1CD9H     0036H     UNIT         ?PR?_OLED_WR_BYTE?OLED
            CODE    1D0FH     0033H     UNIT         ?PR?_UARTSENDSTR?UART
            CODE    1D42H     002CH     UNIT         ?PR?GPIO_INIT?MAIN
            CODE    1D6EH     002CH     UNIT         ?PR?_IAPPROGRAM?EEPROM
            CODE    1D9AH     002AH     UNIT         ?PR?_OLED_DISPLAYTURN?OLED
            CODE    1DC4H     0029H     UNIT         ?PR?_OLED_SET_POS?OLED
BL51 BANKED LINKER/LOCATER V6.22.4.0                                                  06/02/2025  23:22:16  PAGE 3


            CODE    1DEDH     0029H     UNIT         ?PR?OLED_CLEAR?OLED
            CODE    1E16H     0028H     UNIT         ?PR?_IAPERASE?EEPROM
            CODE    1E3EH     0024H     UNIT         ?PR?_SEND_BYTE?OLED
            CODE    1E62H     001EH     UNIT         ?PR?_OLED_POW?OLED
            CODE    1E80H     001CH     UNIT         ?PR?_OLED_COLORTURN?OLED
            CODE    1E9CH     001BH     UNIT         ?PR?_IAPREAD?EEPROM
            CODE    1EB7H     001AH     UNIT         ?PR?_DELAY_US?DELAY
            CODE    1ED1H     0018H     UNIT         ?PR?_DELAY_MS?DELAY
            CODE    1EE9H     0015H     UNIT         ?PR?OLED_DISPLAY_ON?OLED
            CODE    1EFEH     0011H     UNIT         ?PR?_IAPSAFEWRITE?EEPROM
            CODE    1F0FH     000FH     UNIT         ?PR?I2C_START?OLED
            CODE    1F1EH     000FH     UNIT         ?PR?I2C_WAITACK?OLED
            CODE    1F2DH     000FH     UNIT         ?PR?GETSYSTICK?TIMER0
            CODE    1F3CH     000EH     UNIT         ?PR?OLED_DISPLAY_OFF?OLED
            CODE    1F4AH     000EH     UNIT         ?PR?TIMER0_INIT?TIMER0
            CODE    1F58H     0009H     UNIT         ?PR?IIC_DELAY?OLED
            CODE    1F61H     0008H     UNIT         ?PR?_PUTCHAR?UART
            CODE    1F69H     0007H     UNIT         ?PR?PWM_OFF?BEEP
            CODE    1F70H     0007H     UNIT         ?PR?PWM_ON?BEEP
            CODE    1F77H     0006H     UNIT         ?PR?LVD_ISR?MAIN



OVERLAY MAP OF MODULE:   .\Objects\test (?C_STARTUP)


SEGMENT                                    BIT_GROUP          DATA_GROUP          XDATA_GROUP
  +--> CALLED SEGMENT                   START    LENGTH     START    LENGTH     START    LENGTH
-----------------------------------------------------------------------------------------------
?C_C51STARTUP                           -----    -----      -----    -----      -----    -----
  +--> ?PR?MAIN?MAIN
  +--> ?C_INITSEG

?PR?MAIN?MAIN                           -----    -----      -----    -----      -----    -----
  +--> ?PR?GPIO_INIT?MAIN
  +--> ?PR?ENCODER_INIT?ENCODER
  +--> ?PR?TIMER0_INIT?TIMER0
  +--> ?PR?OLED_INIT?OLED
  +--> ?PR?_OLED_COLORTURN?OLED
  +--> ?PR?_OLED_DISPLAYTURN?OLED
  +--> ?CO?MAIN
  +--> ?PR?PRINTF?PRINTF
  +--> ?PR?_OLED_SHOWSTRING?OLED
  +--> ?PR?_PWM_SET?BEEP
  +--> ?PR?GETSYSTICK?TIMER0
  +--> ?PR?HANDLE_KEYPRESS?MAIN
  +--> ?PR?HANDLE_ENCODER?MAIN
  +--> ?PR?HANDLE_COUNTDOWN?MAIN
  +--> ?PR?HANDLE_BUZZER?MAIN
  +--> ?PR?CHECK_INACTIVITY_SLEEP?MAIN
  +--> ?PR?SHOWTIME?OLED
  +--> ?PR?_OLED_DRAWBMP?OLED

?PR?OLED_INIT?OLED                      -----    -----      -----    -----      -----    -----
  +--> ?PR?_DELAY_MS?DELAY
  +--> ?PR?_OLED_WR_BYTE?OLED
  +--> ?PR?OLED_CLEAR?OLED
BL51 BANKED LINKER/LOCATER V6.22.4.0                                                  06/02/2025  23:22:16  PAGE 4



?PR?_DELAY_MS?DELAY                     -----    -----      -----    -----      -----    -----
  +--> ?PR?_DELAY_US?DELAY

?PR?_OLED_WR_BYTE?OLED                  -----    -----      -----    -----      -----    -----
  +--> ?PR?I2C_START?OLED
  +--> ?PR?_SEND_BYTE?OLED
  +--> ?PR?I2C_WAITACK?OLED
  +--> ?PR?I2C_STOP?OLED

?PR?I2C_START?OLED                      -----    -----      -----    -----      -----    -----
  +--> ?PR?IIC_DELAY?OLED

?PR?_SEND_BYTE?OLED                     -----    -----      -----    -----      -----    -----
  +--> ?PR?IIC_DELAY?OLED

?PR?I2C_WAITACK?OLED                    -----    -----      -----    -----      -----    -----
  +--> ?PR?IIC_DELAY?OLED

?PR?I2C_STOP?OLED                       -----    -----      -----    -----      -----    -----
  +--> ?PR?IIC_DELAY?OLED

?PR?OLED_CLEAR?OLED                     -----    -----      -----    -----      0044H    0001H
  +--> ?PR?_OLED_WR_BYTE?OLED

?PR?_OLED_COLORTURN?OLED                -----    -----      -----    -----      0040H    0001H
  +--> ?PR?_OLED_WR_BYTE?OLED

?PR?_OLED_DISPLAYTURN?OLED              -----    -----      -----    -----      0040H    0001H
  +--> ?PR?_OLED_WR_BYTE?OLED

?PR?PRINTF?PRINTF                       0020H.0  0001H.1    0008H    0005H      0044H    0028H
  +--> ?PR?_PUTCHAR?UART

?PR?_OLED_SHOWSTRING?OLED               -----    -----      -----    -----      0044H    0007H
  +--> ?PR?_OLED_SHOWCHAR?OLED

?PR?_OLED_SHOWCHAR?OLED                 -----    -----      -----    -----      004BH    000AH
  +--> ?PR?_OLED_SET_POS?OLED
  +--> ?CO?OLED
  +--> ?PR?_OLED_WR_BYTE?OLED

?PR?_OLED_SET_POS?OLED                  -----    -----      -----    -----      -----    -----
  +--> ?PR?_OLED_WR_BYTE?OLED

?PR?_PWM_SET?BEEP                       -----    -----      -----    -----      0044H    0007H

?PR?HANDLE_KEYPRESS?MAIN                -----    -----      -----    -----      0040H    0004H
  +--> ?PR?GETSYSTICK?TIMER0
  +--> ?PR?UPDATEMODE?MAIN
  +--> ?PR?_PWM_SET?BEEP
  +--> ?PR?PWM_ON?BEEP
  +--> ?PR?_DELAY_MS?DELAY
  +--> ?PR?PWM_OFF?BEEP

?PR?UPDATEMODE?MAIN                     -----    -----      -----    -----      -----    -----
  +--> ?PR?GETSYSTICK?TIMER0
BL51 BANKED LINKER/LOCATER V6.22.4.0                                                  06/02/2025  23:22:16  PAGE 5


  +--> ?PR?OLED_CLEAR?OLED
  +--> ?PR?_PWM_SET?BEEP
  +--> ?PR?PWM_ON?BEEP
  +--> ?PR?_DELAY_MS?DELAY
  +--> ?PR?PWM_OFF?BEEP
  +--> ?CO?MAIN
  +--> ?PR?PRINTF?PRINTF
  +--> ?PR?_OLED_SHOWSTRING?OLED

?PR?HANDLE_ENCODER?MAIN                 -----    -----      -----    -----      0040H    0003H
  +--> ?PR?GETSYSTICK?TIMER0
  +--> ?PR?_PWM_SET?BEEP
  +--> ?PR?PWM_ON?BEEP
  +--> ?PR?_DELAY_MS?DELAY
  +--> ?PR?PWM_OFF?BEEP
  +--> ?PR?_UPDATETIME?OLED

?PR?_UPDATETIME?OLED                    -----    -----      -----    -----      0043H    0006H

?PR?HANDLE_COUNTDOWN?MAIN               -----    -----      -----    -----      -----    -----
  +--> ?PR?GETSYSTICK?TIMER0
  +--> ?PR?_UPDATETIME?OLED

?PR?HANDLE_BUZZER?MAIN                  0020H.0  0000H.1    -----    -----      0040H    0004H
  +--> ?PR?GETSYSTICK?TIMER0
  +--> ?PR?_PWM_SET?BEEP
  +--> ?PR?PWM_ON?BEEP
  +--> ?PR?PWM_OFF?BEEP

?PR?CHECK_INACTIVITY_SLEEP?MAIN         -----    -----      -----    -----      -----    -----
  +--> ?PR?GETSYSTICK?TIMER0
  +--> ?PR?OLED_CLEAR?OLED
  +--> ?PR?PWM_OFF?BEEP
  +--> ?PR?GPIO_INIT?MAIN
  +--> ?PR?ENCODER_INIT?ENCODER
  +--> ?PR?TIMER0_INIT?TIMER0
  +--> ?PR?OLED_INIT?OLED
  +--> ?PR?_OLED_COLORTURN?OLED
  +--> ?PR?_OLED_DISPLAYTURN?OLED
  +--> ?PR?_PWM_SET?BEEP

?PR?SHOWTIME?OLED                       -----    -----      -----    -----      -----    -----
  +--> ?CO?OLED
  +--> ?PR?PRINTF?PRINTF
  +--> ?PR?_OLED_SHOWSTRING?OLED

?PR?_OLED_DRAWBMP?OLED                  -----    -----      -----    -----      0040H    000BH
  +--> ?PR?_OLED_SET_POS?OLED
  +--> ?PR?_OLED_WR_BYTE?OLED

*** NEW ROOT ***************************************************

?PR?INT2_ISR?ENCODER                    -----    -----      -----    -----      006CH    0005H
  +--> ?PR?GETSYSTICK?TIMER0



BL51 BANKED LINKER/LOCATER V6.22.4.0                                                  06/02/2025  23:22:16  PAGE 6


SYMBOL TABLE OF MODULE:  .\Objects\test (?C_STARTUP)

  VALUE           TYPE          NAME
  ----------------------------------

  -------         MODULE        ?C_STARTUP
  C:188CH         SEGMENT       ?C_C51STARTUP
  I:0023H         SEGMENT       ?STACK
  C:0000H         PUBLIC        ?C_STARTUP
  D:00E0H         SYMBOL        ACC
  D:00F0H         SYMBOL        B
  D:0083H         SYMBOL        DPH
  D:0082H         SYMBOL        DPL
  N:0000H         SYMBOL        IBPSTACK
  N:0100H         SYMBOL        IBPSTACKTOP
  N:0080H         SYMBOL        IDATALEN
  C:188FH         SYMBOL        IDATALOOP
  N:0000H         SYMBOL        PBPSTACK
  N:0100H         SYMBOL        PBPSTACKTOP
  N:0000H         SYMBOL        PDATALEN
  N:0000H         SYMBOL        PDATASTART
  N:0000H         SYMBOL        PPAGE
  N:0000H         SYMBOL        PPAGEENABLE
  D:00A0H         SYMBOL        PPAGE_SFR
  D:0081H         SYMBOL        SP
  C:188CH         SYMBOL        STARTUP1
  N:0000H         SYMBOL        XBPSTACK
  N:0000H         SYMBOL        XBPSTACKTOP
  N:0000H         SYMBOL        XDATALEN
  N:0000H         SYMBOL        XDATASTART
  C:0000H         LINE#         126
  C:188CH         LINE#         133
  C:188EH         LINE#         134
  C:188FH         LINE#         135
  C:1890H         LINE#         136
  C:1892H         LINE#         185
  C:1895H         LINE#         196
  -------         ENDMOD        ?C_STARTUP

  -------         MODULE        MAIN
  C:0000H         SYMBOL        _ICE_DUMMY_
  B:0021H.2       PUBLIC        beep_active
  D:0080H         PUBLIC        P0
  D:00B2H         PUBLIC        P3M0
  D:0090H         PUBLIC        P1
  D:00B1H         PUBLIC        P3M1
  D:00A0H         PUBLIC        P2
  D:00CAH         PUBLIC        P5M0
  D:00B0H         PUBLIC        P3
  X:000AH         PUBLIC        nokia_melody
  D:00C9H         PUBLIC        P5M1
  D:00C0H         PUBLIC        P4
  D:00C8H         PUBLIC        P5
  D:00E8H         PUBLIC        P6
  B:00A8H.7       PUBLIC        EA
  D:00F8H         PUBLIC        P7
  D:00A8H         PUBLIC        IE
BL51 BANKED LINKER/LOCATER V6.22.4.0                                                  06/02/2025  23:22:16  PAGE 7


  C:0065H         PUBLIC        BMP1
  B:0021H.3       PUBLIC        BAT_FLAGE
  X:0024H         PUBLIC        time_update
  D:00B8H         PUBLIC        IP
  B:00B0H.1       PUBLIC        BEEP
  X:0028H         PUBLIC        t0
  D:00D8H         PUBLIC        CCON
  C:15C2H         PUBLIC        main
  B:00A8H.6       PUBLIC        ELVD
  B:0021H.4       PUBLIC        WDT_FLAGE
  D:0087H         PUBLIC        PCON
  D:0098H         PUBLIC        SCON
  D:0088H         PUBLIC        TCON
  C:0D5FH         PUBLIC        Handle_Buzzer
  C:1F77H         PUBLIC        Lvd_Isr
  C:1D42H         PUBLIC        gpio_init
  C:1B03H         PUBLIC        Check_Inactivity_Sleep
  D:00FFH         PUBLIC        RSTCFG
  X:002CH         PUBLIC        time_buf_main
  D:00C1H         PUBLIC        WDT_CONTR
  B:0021H.5       PUBLIC        beep_on
  X:003CH         PUBLIC        last_user_tick
  C:0465H         PUBLIC        BAT_0
  B:00B0H.0       PUBLIC        KEY
  C:141AH         PUBLIC        Handle_KeyPress
  C:1918H         PUBLIC        UpdateMode
  C:1264H         PUBLIC        Handle_Encoder
  C:1B6EH         PUBLIC        Handle_Countdown
  D:00D0H         PUBLIC        PSW
  -------         PROC          GPIO_INIT
  C:1D42H         LINE#         25
  C:1D42H         LINE#         26
  C:1D42H         LINE#         28
  C:1D45H         LINE#         29
  C:1D48H         LINE#         32
  C:1D4BH         LINE#         33
  C:1D4EH         LINE#         34
  C:1D55H         LINE#         36
  C:1D58H         LINE#         37
  C:1D5BH         LINE#         40
  C:1D5EH         LINE#         41
  C:1D61H         LINE#         44
  C:1D64H         LINE#         45
  C:1D67H         LINE#         48
  C:1D6AH         LINE#         49
  C:1D6DH         LINE#         50
  -------         ENDPROC       GPIO_INIT
  -------         PROC          UPDATEMODE
  C:1918H         LINE#         52
  C:1918H         LINE#         53
  C:1918H         LINE#         55
  C:1929H         LINE#         56
  C:1932H         LINE#         57
  C:1935H         LINE#         58
  C:193EH         LINE#         59
  C:1941H         LINE#         60
  C:1948H         LINE#         61
BL51 BANKED LINKER/LOCATER V6.22.4.0                                                  06/02/2025  23:22:16  PAGE 8


  C:194BH         LINE#         62
  C:194DH         LINE#         63
  C:1991H         LINE#         64
  -------         ENDPROC       UPDATEMODE
  -------         PROC          HANDLE_KEYPRESS
  -------         DO            
  X:0000H         SYMBOL        key_mode
  B:0021H.1       SYMBOL        key_last
  X:0002H         SYMBOL        key_down_time
  -------         DO            
  X:0040H         SYMBOL        duration
  -------         ENDDO         
  -------         ENDDO         
  C:141AH         LINE#         67
  C:141AH         LINE#         68
  C:141AH         LINE#         73
  C:1420H         LINE#         74
  C:1420H         LINE#         75
  C:1423H         LINE#         76
  C:1423H         LINE#         77
  C:1425H         LINE#         78
  C:142EH         LINE#         79
  C:142EH         LINE#         81
  C:142EH         LINE#         82
  C:1452H         LINE#         83
  C:146DH         LINE#         84
  C:146DH         LINE#         85
  C:1476H         LINE#         86
  C:1476H         LINE#         87
  C:14A6H         LINE#         88
  C:14A6H         LINE#         89
  C:14AEH         LINE#         90
  C:14AEH         LINE#         91
  C:14AEH         LINE#         92
  C:14AFH         LINE#         94
  C:14AFH         LINE#         95
  C:14B2H         LINE#         96
  C:14B2H         LINE#         97
  C:14BEH         LINE#         98
  C:14BEH         LINE#         99
  C:14C1H         LINE#         100
  C:14C3H         LINE#         101
  C:14CFH         LINE#         102
  C:14CFH         LINE#         103
  C:14D8H         LINE#         104
  C:14DBH         LINE#         105
  C:14E2H         LINE#         106
  C:14E5H         LINE#         107
  C:14E7H         LINE#         108
  C:14E7H         LINE#         111
  C:14EEH         LINE#         112
  C:14F0H         LINE#         113
  C:14F0H         LINE#         114
  C:14F0H         LINE#         115
  -------         ENDPROC       HANDLE_KEYPRESS
  -------         PROC          HANDLE_ENCODER
  -------         DO            
BL51 BANKED LINKER/LOCATER V6.22.4.0                                                  06/02/2025  23:22:16  PAGE 9


  X:0040H         SYMBOL        sum
  X:0042H         SYMBOL        i
  -------         ENDDO         
  C:1264H         LINE#         118
  C:1264H         LINE#         119
  C:1264H         LINE#         120
  C:1267H         LINE#         121
  C:1267H         LINE#         122
  C:126EH         LINE#         123
  C:1270H         LINE#         124
  C:127DH         LINE#         125
  C:12A6H         LINE#         127
  C:12B8H         LINE#         128
  C:12C4H         LINE#         129
  C:12CFH         LINE#         130
  C:12D8H         LINE#         132
  C:12DFH         LINE#         134
  C:12E1H         LINE#         135
  C:12E1H         LINE#         136
  C:12FBH         LINE#         137
  C:12FBH         LINE#         138
  C:1304H         LINE#         139
  C:130DH         LINE#         140
  C:1310H         LINE#         141
  C:1317H         LINE#         142
  C:131AH         LINE#         143
  C:1334H         LINE#         144
  C:133EH         LINE#         145
  C:133EH         LINE#         146
  -------         ENDPROC       HANDLE_ENCODER
  -------         PROC          HANDLE_COUNTDOWN
  C:1B6EH         LINE#         149
  C:1B6EH         LINE#         150
  C:1B6EH         LINE#         151
  C:1BA1H         LINE#         152
  C:1BA1H         LINE#         153
  C:1BAAH         LINE#         154
  C:1BB1H         LINE#         155
  C:1BD4H         LINE#         156
  C:1BD4H         LINE#         157
  C:1BD6H         LINE#         158
  C:1BD6H         LINE#         159
  C:1BD6H         LINE#         160
  -------         ENDPROC       HANDLE_COUNTDOWN
  -------         PROC          HANDLE_BUZZER
  B:0020H.0       SYMBOL        on
  -------         DO            
  X:0006H         SYMBOL        t0
  X:0040H         SYMBOL        elapsed
  -------         ENDDO         
  C:0D5FH         LINE#         167
  C:0D5FH         LINE#         168
  C:0D5FH         LINE#         172
  C:0D65H         LINE#         173
  C:0D65H         LINE#         174
  C:0D68H         LINE#         175
  C:0D68H         LINE#         176
BL51 BANKED LINKER/LOCATER V6.22.4.0                                                  06/02/2025  23:22:16  PAGE 10


  C:0D6AH         LINE#         177
  C:0D73H         LINE#         178
  C:0D73H         LINE#         180
  C:0D97H         LINE#         182
  C:0DB1H         LINE#         183
  C:0DB7H         LINE#         184
  C:0DD2H         LINE#         185
  C:0DD8H         LINE#         186
  C:0DF3H         LINE#         187
  C:0DF9H         LINE#         188
  C:0E14H         LINE#         189
  C:0E1AH         LINE#         190
  C:0E35H         LINE#         191
  C:0E3BH         LINE#         192
  C:0E56H         LINE#         193
  C:0E5CH         LINE#         194
  C:0E77H         LINE#         195
  C:0E7DH         LINE#         196
  C:0E98H         LINE#         197
  C:0E9EH         LINE#         198
  C:0EB9H         LINE#         199
  C:0EBEH         LINE#         200
  C:0ED9H         LINE#         201
  C:0EDEH         LINE#         202
  C:0EF9H         LINE#         203
  C:0EFEH         LINE#         204
  C:0F19H         LINE#         205
  C:0F1EH         LINE#         206
  C:0F39H         LINE#         207
  C:0F48H         LINE#         210
  C:0F51H         LINE#         212
  C:0F54H         LINE#         213
  C:0F54H         LINE#         215
  C:0F54H         LINE#         216
  C:0F57H         LINE#         217
  C:0F59H         LINE#         218
  C:0F62H         LINE#         219
  C:0F62H         LINE#         220
  -------         ENDPROC       HANDLE_BUZZER
  -------         PROC          CHECK_INACTIVITY_SLEEP
  C:1B03H         LINE#         222
  C:1B03H         LINE#         223
  C:1B03H         LINE#         224
  C:1B0BH         LINE#         225
  C:1B0BH         LINE#         226
  C:1B36H         LINE#         227
  C:1B36H         LINE#         228
  C:1B39H         LINE#         229
  C:1B3CH         LINE#         231
  C:1B3FH         LINE#         232
  C:1B40H         LINE#         233
  C:1B41H         LINE#         235
  C:1B44H         LINE#         236
  C:1B46H         LINE#         237
  C:1B49H         LINE#         238
  C:1B4CH         LINE#         239
  C:1B4FH         LINE#         240
BL51 BANKED LINKER/LOCATER V6.22.4.0                                                  06/02/2025  23:22:16  PAGE 11


  C:1B54H         LINE#         241
  C:1B59H         LINE#         242
  C:1B62H         LINE#         243
  C:1B6BH         LINE#         244
  C:1B6DH         LINE#         245
  C:1B6DH         LINE#         246
  C:1B6DH         LINE#         247
  -------         ENDPROC       CHECK_INACTIVITY_SLEEP
  -------         PROC          MAIN
  C:15C2H         LINE#         251
  C:15C2H         LINE#         252
  C:15C2H         LINE#         254
  C:15C5H         LINE#         255
  C:15C7H         LINE#         256
  C:15CAH         LINE#         257
  C:15CDH         LINE#         258
  C:15D0H         LINE#         259
  C:15D5H         LINE#         260
  C:15DAH         LINE#         261
  C:161EH         LINE#         262
  C:1631H         LINE#         263
  C:163AH         LINE#         264
  C:163DH         LINE#         265
  C:163FH         LINE#         266
  C:1642H         LINE#         267
  C:1644H         LINE#         268
  C:1646H         LINE#         269
  C:1648H         LINE#         270
  C:1651H         LINE#         271
  C:1651H         LINE#         272
  C:1651H         LINE#         273
  C:1654H         LINE#         274
  C:1654H         LINE#         275
  C:1657H         LINE#         276
  C:1657H         LINE#         277
  C:165AH         LINE#         278
  C:165DH         LINE#         279
  C:1660H         LINE#         280
  C:1667H         LINE#         281
  C:166AH         LINE#         282
  C:166DH         LINE#         283
  C:1670H         LINE#         284
  C:168AH         LINE#         285
  -------         ENDPROC       MAIN
  -------         PROC          LVD_ISR
  C:1F77H         LINE#         288
  C:1F77H         LINE#         290
  C:1F7AH         LINE#         291
  C:1F7CH         LINE#         292
  -------         ENDPROC       LVD_ISR
  -------         ENDMOD        MAIN

  -------         MODULE        UART
  C:0000H         SYMBOL        _ICE_DUMMY_
  D:0080H         PUBLIC        P0
  D:0090H         PUBLIC        P1
  D:00A0H         PUBLIC        P2
BL51 BANKED LINKER/LOCATER V6.22.4.0                                                  06/02/2025  23:22:16  PAGE 12


  D:00B0H         PUBLIC        P3
  D:00C0H         PUBLIC        P4
  D:00C8H         PUBLIC        P5
  D:00E8H         PUBLIC        P6
  D:00F8H         PUBLIC        P7
  D:00A8H         PUBLIC        IE
  D:00B8H         PUBLIC        IP
  B:0098H.0       PUBLIC        RI
  B:0098H.1       PUBLIC        TI
  D:00D8H         PUBLIC        CCON
  C:0003H         PUBLIC        _UartSend
  D:0099H         PUBLIC        SBUF
  D:0098H         PUBLIC        SCON
  C:0036H         PUBLIC        UartInit
  D:0089H         PUBLIC        TMOD
  D:0088H         PUBLIC        TCON
  D:008EH         PUBLIC        AUXR
  B:0021H.6       PUBLIC        busy
  X:0085H         PUBLIC        rptr
  D:008DH         PUBLIC        TH1
  C:1C91H         PUBLIC        UartIsr
  X:0086H         PUBLIC        wptr
  D:008BH         PUBLIC        TL1
  B:0088H.6       PUBLIC        TR1
  C:1D0FH         PUBLIC        _UartSendStr
  D:00D0H         PUBLIC        PSW
  C:1F61H         PUBLIC        _putchar
  X:0087H         PUBLIC        buffer
  -------         PROC          UARTINIT
  C:0036H         LINE#         12
  C:0036H         LINE#         13
  C:0036H         LINE#         15
  C:0039H         LINE#         16
  C:003CH         LINE#         17
  C:003FH         LINE#         18
  C:0042H         LINE#         19
  C:0044H         LINE#         20
  C:0047H         LINE#         21
  C:004BH         LINE#         22
  C:004FH         LINE#         23
  C:0051H         LINE#         24
  -------         ENDPROC       UARTINIT
  -------         PROC          _UARTSEND
  D:0007H         SYMBOL        dat
  C:0003H         LINE#         25
  C:0003H         LINE#         26
  C:0003H         LINE#         27
  C:0006H         LINE#         28
  C:0008H         LINE#         29
  C:000AH         LINE#         30
  -------         ENDPROC       _UARTSEND
  -------         PROC          _UARTSENDSTR
  X:00C8H         SYMBOL        p
  C:1D0FH         LINE#         31
  C:1D1AH         LINE#         32
  C:1D1AH         LINE#         33
  C:1D2AH         LINE#         34
BL51 BANKED LINKER/LOCATER V6.22.4.0                                                  06/02/2025  23:22:16  PAGE 13


  C:1D2AH         LINE#         35
  C:1D3FH         LINE#         36
  C:1D41H         LINE#         37
  -------         ENDPROC       _UARTSENDSTR
  -------         PROC          UARTISR
  C:1C91H         LINE#         40
  C:1CA0H         LINE#         42
  C:1CA3H         LINE#         43
  C:1CA3H         LINE#         44
  C:1CA5H         LINE#         45
  C:1CA7H         LINE#         46
  C:1CA7H         LINE#         47
  C:1CAAH         LINE#         48
  C:1CAAH         LINE#         49
  C:1CACH         LINE#         50
  C:1CC5H         LINE#         51
  C:1CCCH         LINE#         52
  C:1CCCH         LINE#         53
  -------         ENDPROC       UARTISR
  -------         PROC          _PUTCHAR
  D:0007H         SYMBOL        ch
  C:1F61H         LINE#         55
  C:1F61H         LINE#         56
  C:1F61H         LINE#         57
  C:1F63H         LINE#         58
  C:1F66H         LINE#         59
  C:1F68H         LINE#         60
  C:1F68H         LINE#         61
  -------         ENDPROC       _PUTCHAR
  -------         ENDMOD        UART

  -------         MODULE        DELAY
  C:0000H         SYMBOL        _ICE_DUMMY_
  D:0080H         PUBLIC        P0
  D:0090H         PUBLIC        P1
  D:00A0H         PUBLIC        P2
  D:00B0H         PUBLIC        P3
  D:00C0H         PUBLIC        P4
  D:00C8H         PUBLIC        P5
  D:00E8H         PUBLIC        P6
  D:00F8H         PUBLIC        P7
  D:00A8H         PUBLIC        IE
  D:00B8H         PUBLIC        IP
  D:00D8H         PUBLIC        CCON
  C:1ED1H         PUBLIC        _Delay_ms
  D:0098H         PUBLIC        SCON
  D:0088H         PUBLIC        TCON
  C:1EB7H         PUBLIC        _Delay_us
  D:00D0H         PUBLIC        PSW
  -------         PROC          _DELAY_US
  D:0006H         SYMBOL        us
  C:1EB7H         LINE#         3
  C:1EB7H         LINE#         4
  C:1EB7H         LINE#         5
  C:1EC1H         LINE#         6
  C:1EC5H         LINE#         7
  C:1EC9H         LINE#         8
BL51 BANKED LINKER/LOCATER V6.22.4.0                                                  06/02/2025  23:22:16  PAGE 14


  C:1ECDH         LINE#         9
  C:1ECEH         LINE#         10
  C:1ED0H         LINE#         11
  -------         ENDPROC       _DELAY_US
  -------         PROC          _DELAY_MS
  D:0002H         SYMBOL        ms
  C:1ED1H         LINE#         13
  C:1ED5H         LINE#         14
  C:1ED5H         LINE#         15
  C:1EDFH         LINE#         16
  C:1EE6H         LINE#         17
  C:1EE8H         LINE#         18
  -------         ENDPROC       _DELAY_MS
  -------         ENDMOD        DELAY

  -------         MODULE        EEPROM
  C:0000H         SYMBOL        _ICE_DUMMY_
  D:0080H         PUBLIC        P0
  D:0090H         PUBLIC        P1
  D:00A0H         PUBLIC        P2
  D:00B0H         PUBLIC        P3
  D:00C0H         PUBLIC        P4
  D:00C8H         PUBLIC        P5
  D:00E8H         PUBLIC        P6
  B:00A8H.7       PUBLIC        EA
  D:00F8H         PUBLIC        P7
  D:00A8H         PUBLIC        IE
  C:1E16H         PUBLIC        _IapErase
  D:00C5H         PUBLIC        IAP_CMD
  D:00B8H         PUBLIC        IP
  C:1E9CH         PUBLIC        _IapRead
  C:000EH         SYMBOL        IapIdle
  D:00C3H         PUBLIC        IAP_ADDRH
  D:00D8H         PUBLIC        CCON
  D:00C4H         PUBLIC        IAP_ADDRL
  C:1EFEH         PUBLIC        _IapSafeWrite
  D:00F5H         PUBLIC        IAP_TPS
  D:0098H         PUBLIC        SCON
  D:0088H         PUBLIC        TCON
  D:00C7H         PUBLIC        IAP_CONTR
  D:00C2H         PUBLIC        IAP_DATA
  D:00C6H         PUBLIC        IAP_TRIG
  C:1D6EH         PUBLIC        _IapProgram
  D:00D0H         PUBLIC        PSW
  -------         PROC          IAPIDLE
  C:000EH         LINE#         4
  C:000EH         LINE#         5
  C:000EH         LINE#         6
  C:0011H         LINE#         7
  C:0013H         LINE#         8
  C:0015H         LINE#         9
  C:0018H         LINE#         10
  C:001AH         LINE#         11
  -------         ENDPROC       IAPIDLE
  -------         PROC          _IAPREAD
  D:0006H         SYMBOL        addr
  -------         DO            
BL51 BANKED LINKER/LOCATER V6.22.4.0                                                  06/02/2025  23:22:16  PAGE 15


  D:0007H         SYMBOL        dat
  -------         ENDDO         
  C:1E9CH         LINE#         13
  C:1E9CH         LINE#         14
  C:1E9CH         LINE#         16
  C:1E9FH         LINE#         17
  C:1EA2H         LINE#         18
  C:1EA5H         LINE#         19
  C:1EA7H         LINE#         20
  C:1EABH         LINE#         21
  C:1EAEH         LINE#         22
  C:1EB1H         LINE#         23
  C:1EB2H         LINE#         24
  C:1EB4H         LINE#         25
  -------         ENDPROC       _IAPREAD
  -------         PROC          _IAPPROGRAM
  D:0006H         SYMBOL        addr
  D:0005H         SYMBOL        dat
  -------         DO            
  D:0004H         SYMBOL        EA_SAVE
  -------         ENDDO         
  C:1D6EH         LINE#         29
  C:1D6EH         LINE#         30
  C:1D6EH         LINE#         31
  C:1D73H         LINE#         32
  C:1D75H         LINE#         34
  C:1D78H         LINE#         35
  C:1D7BH         LINE#         36
  C:1D7EH         LINE#         37
  C:1D80H         LINE#         38
  C:1D84H         LINE#         39
  C:1D88H         LINE#         40
  C:1D8BH         LINE#         41
  C:1D8EH         LINE#         42
  C:1D8FH         LINE#         44
  C:1D92H         LINE#         45
  C:1D99H         LINE#         46
  -------         ENDPROC       _IAPPROGRAM
  -------         PROC          _IAPERASE
  D:0006H         SYMBOL        addr
  -------         DO            
  D:0005H         SYMBOL        EA_SAVE
  -------         ENDDO         
  C:1E16H         LINE#         48
  C:1E16H         LINE#         49
  C:1E16H         LINE#         50
  C:1E1BH         LINE#         51
  C:1E1DH         LINE#         53
  C:1E20H         LINE#         54
  C:1E23H         LINE#         55
  C:1E26H         LINE#         56
  C:1E28H         LINE#         57
  C:1E2CH         LINE#         58
  C:1E2FH         LINE#         59
  C:1E32H         LINE#         60
  C:1E33H         LINE#         62
  C:1E36H         LINE#         63
BL51 BANKED LINKER/LOCATER V6.22.4.0                                                  06/02/2025  23:22:16  PAGE 16


  C:1E3DH         LINE#         64
  -------         ENDPROC       _IAPERASE
  -------         PROC          _IAPSAFEWRITE
  D:0002H         SYMBOL        addr
  D:0005H         SYMBOL        dat
  C:1EFEH         LINE#         67
  C:1F02H         LINE#         68
  C:1F02H         LINE#         69
  C:1F09H         LINE#         70
  C:1F09H         LINE#         71
  C:1F0EH         LINE#         72
  C:1F0EH         LINE#         73
  -------         ENDPROC       _IAPSAFEWRITE
  -------         ENDMOD        EEPROM

  -------         MODULE        OLED
  C:0000H         SYMBOL        _ICE_DUMMY_
  C:1EE9H         PUBLIC        OLED_Display_On
  D:0080H         PUBLIC        P0
  D:0090H         PUBLIC        P1
  D:00A0H         PUBLIC        P2
  C:1E3EH         PUBLIC        _Send_Byte
  D:00B0H         PUBLIC        P3
  D:00C0H         PUBLIC        P4
  D:00C8H         PUBLIC        P5
  D:00E8H         PUBLIC        P6
  D:00F8H         PUBLIC        P7
  C:1D9AH         PUBLIC        _OLED_DisplayTurn
  D:00A8H         PUBLIC        IE
  C:0819H         PUBLIC        asc2_3216
  D:00B8H         PUBLIC        IP
  C:168CH         PUBLIC        OLED_Init
  D:00D8H         PUBLIC        CCON
  C:1A93H         PUBLIC        _OLED_ShowString
  C:1CE6H         PUBLIC        _OLED_WR_Byte
  C:1091H         PUBLIC        _OLED_ShowChar
  C:1F0FH         PUBLIC        I2C_Start
  C:1E80H         PUBLIC        _OLED_ColorTurn
  D:0098H         PUBLIC        SCON
  C:1A21H         PUBLIC        ShowTime
  D:0088H         PUBLIC        TCON
  C:1F1EH         PUBLIC        I2C_WaitAck
  C:0026H         PUBLIC        I2C_Stop
  C:1DCBH         PUBLIC        _OLED_Set_Pos
  C:1F58H         PUBLIC        IIC_delay
  X:0098H         PUBLIC        time_buf
  C:133FH         PUBLIC        _OLED_ShowNum
  C:1F3CH         PUBLIC        OLED_Display_Off
  C:1E62H         PUBLIC        _oled_pow
  B:00B0H.2       PUBLIC        OLED_SDA
  B:00B0H.3       PUBLIC        OLED_SCL
  C:19A4H         PUBLIC        _OLED_ShowChinese
  C:1DEDH         PUBLIC        OLED_Clear
  B:0090H.2       PUBLIC        OLED_RES
  C:17F9H         PUBLIC        _OLED_DrawBMP
  C:0F63H         PUBLIC        _UpdateTime
  D:00D0H         PUBLIC        PSW
BL51 BANKED LINKER/LOCATER V6.22.4.0                                                  06/02/2025  23:22:16  PAGE 17


  -------         PROC          _OLED_COLORTURN
  X:0040H         SYMBOL        i
  C:1E80H         LINE#         19
  C:1E85H         LINE#         20
  C:1E85H         LINE#         21
  C:1E87H         LINE#         22
  C:1E87H         LINE#         23
  C:1E8DH         LINE#         24
  C:1E8DH         LINE#         25
  C:1E94H         LINE#         26
  C:1E94H         LINE#         27
  C:1E9BH         LINE#         28
  C:1E9BH         LINE#         29
  -------         ENDPROC       _OLED_COLORTURN
  -------         PROC          _OLED_DISPLAYTURN
  X:0040H         SYMBOL        i
  C:1D9AH         LINE#         32
  C:1D9FH         LINE#         33
  C:1D9FH         LINE#         34
  C:1DA1H         LINE#         35
  C:1DA1H         LINE#         36
  C:1DA7H         LINE#         37
  C:1DAEH         LINE#         38
  C:1DAEH         LINE#         39
  C:1DB5H         LINE#         40
  C:1DB5H         LINE#         41
  C:1DBCH         LINE#         42
  C:1DC3H         LINE#         43
  C:1DC3H         LINE#         44
  -------         ENDPROC       _OLED_DISPLAYTURN
  -------         PROC          IIC_DELAY
  -------         DO            
  D:0007H         SYMBOL        t
  -------         ENDDO         
  C:1F58H         LINE#         47
  C:1F58H         LINE#         48
  C:1F58H         LINE#         49
  C:1F5AH         LINE#         50
  C:1F60H         LINE#         51
  -------         ENDPROC       IIC_DELAY
  -------         PROC          I2C_START
  C:1F0FH         LINE#         54
  C:1F0FH         LINE#         55
  C:1F0FH         LINE#         56
  C:1F11H         LINE#         57
  C:1F13H         LINE#         58
  C:1F16H         LINE#         59
  C:1F18H         LINE#         60
  C:1F1BH         LINE#         61
  C:1F1DH         LINE#         63
  -------         ENDPROC       I2C_START
  -------         PROC          I2C_STOP
  C:0026H         LINE#         66
  C:0026H         LINE#         67
  C:0026H         LINE#         68
  C:0028H         LINE#         69
  C:002AH         LINE#         70
BL51 BANKED LINKER/LOCATER V6.22.4.0                                                  06/02/2025  23:22:16  PAGE 18


  C:002DH         LINE#         71
  C:002FH         LINE#         72
  -------         ENDPROC       I2C_STOP
  -------         PROC          I2C_WAITACK
  C:1F1EH         LINE#         75
  C:1F1EH         LINE#         76
  C:1F1EH         LINE#         77
  C:1F20H         LINE#         78
  C:1F23H         LINE#         79
  C:1F25H         LINE#         80
  C:1F28H         LINE#         81
  C:1F2AH         LINE#         82
  -------         ENDPROC       I2C_WAITACK
  -------         PROC          _SEND_BYTE
  D:0005H         SYMBOL        dat
  -------         DO            
  D:0004H         SYMBOL        i
  -------         ENDDO         
  C:1E3EH         LINE#         86
  C:1E40H         LINE#         87
  C:1E40H         LINE#         89
  C:1E42H         LINE#         90
  C:1E42H         LINE#         91
  C:1E44H         LINE#         92
  C:1E48H         LINE#         93
  C:1E48H         LINE#         94
  C:1E4AH         LINE#         95
  C:1E4CH         LINE#         97
  C:1E4CH         LINE#         98
  C:1E4EH         LINE#         99
  C:1E4EH         LINE#         100
  C:1E51H         LINE#         101
  C:1E53H         LINE#         102
  C:1E56H         LINE#         103
  C:1E58H         LINE#         104
  C:1E5CH         LINE#         105
  C:1E61H         LINE#         106
  -------         ENDPROC       _SEND_BYTE
  C:1CDFH         SYMBOL        L?0087
  -------         PROC          L?0086
  -------         ENDPROC       L?0086
  C:1CDFH         SYMBOL        L?0087
  -------         PROC          _OLED_WR_BYTE
  D:0002H         SYMBOL        dat
  D:0003H         SYMBOL        mode
  C:1CE6H         LINE#         111
  C:1CEAH         LINE#         112
  C:1CEAH         LINE#         113
  C:1CEDH         LINE#         114
  C:1CF2H         LINE#         115
  C:1CF5H         LINE#         116
  C:1CFCH         LINE#         117
  C:1D01H         LINE#         118
  C:1D04H         LINE#         119
  C:1D09H         LINE#         120
  C:1D0CH         LINE#         121
  -------         ENDPROC       _OLED_WR_BYTE
BL51 BANKED LINKER/LOCATER V6.22.4.0                                                  06/02/2025  23:22:16  PAGE 19


  -------         PROC          L?0088
  -------         ENDPROC       L?0088
  -------         PROC          _OLED_SET_POS
  D:0001H         SYMBOL        x
  D:0005H         SYMBOL        y
  C:1DCBH         LINE#         191
  C:1DCDH         LINE#         192
  C:1DCDH         LINE#         193
  C:1DD6H         LINE#         194
  C:1DE4H         LINE#         195
  -------         ENDPROC       _OLED_SET_POS
  -------         PROC          OLED_DISPLAY_ON
  C:1EE9H         LINE#         198
  C:1EE9H         LINE#         199
  C:1EE9H         LINE#         200
  C:1EF0H         LINE#         201
  C:1EF7H         LINE#         202
  -------         ENDPROC       OLED_DISPLAY_ON
  -------         PROC          OLED_DISPLAY_OFF
  C:1F3CH         LINE#         205
  C:1F3CH         LINE#         206
  C:1F3CH         LINE#         207
  C:1F40H         LINE#         208
  C:1F43H         LINE#         209
  -------         ENDPROC       OLED_DISPLAY_OFF
  -------         PROC          OLED_CLEAR
  -------         DO            
  D:0001H         SYMBOL        i
  X:0044H         SYMBOL        n
  -------         ENDDO         
  C:1DEDH         LINE#         212
  C:1DEDH         LINE#         213
  C:1DEDH         LINE#         215
  C:1DEFH         LINE#         216
  C:1DEFH         LINE#         217
  C:1DF5H         LINE#         218
  C:1DF5H         LINE#         219
  C:1DF8H         LINE#         220
  C:1E10H         LINE#         221
  C:1E15H         LINE#         222
  -------         ENDPROC       OLED_CLEAR
  -------         PROC          _OLED_SHOWCHAR
  X:004BH         SYMBOL        x
  X:004CH         SYMBOL        y
  D:0003H         SYMBOL        chr
  X:004EH         SYMBOL        sizey
  -------         DO            
  X:004FH         SYMBOL        c
  X:0050H         SYMBOL        sizex
  X:0051H         SYMBOL        i
  X:0053H         SYMBOL        size1
  -------         ENDDO         
  C:1091H         LINE#         228
  C:1099H         LINE#         229
  C:1099H         LINE#         230
  C:10AAH         LINE#         231
  C:10AFH         LINE#         232
BL51 BANKED LINKER/LOCATER V6.22.4.0                                                  06/02/2025  23:22:16  PAGE 20


  C:10BCH         LINE#         233
  C:10EDH         LINE#         234
  C:10F4H         LINE#         235
  C:10FFH         LINE#         236
  C:111CH         LINE#         237
  C:111CH         LINE#         238
  C:1138H         LINE#         242
  C:116BH         LINE#         244
  C:117BH         LINE#         245
  -------         ENDPROC       _OLED_SHOWCHAR
  -------         PROC          _OLED_POW
  X:00CBH         SYMBOL        m
  D:0001H         SYMBOL        n
  -------         DO            
  D:0006H         SYMBOL        result
  -------         ENDDO         
  C:1E62H         LINE#         247
  C:1E69H         LINE#         248
  C:1E69H         LINE#         249
  C:1E6DH         LINE#         250
  C:1E7FH         LINE#         251
  C:1E7FH         LINE#         252
  -------         ENDPROC       _OLED_POW
  -------         PROC          _OLED_SHOWNUM
  X:00A8H         SYMBOL        x
  X:00A9H         SYMBOL        y
  X:00AAH         SYMBOL        num
  X:00ACH         SYMBOL        len
  X:00ADH         SYMBOL        sizey
  -------         DO            
  X:00AEH         SYMBOL        t
  X:00AFH         SYMBOL        temp
  X:00B0H         SYMBOL        m
  X:00B1H         SYMBOL        enshow
  -------         ENDDO         
  C:133FH         LINE#         258
  C:134DH         LINE#         259
  C:134DH         LINE#         260
  C:1352H         LINE#         261
  C:1354H         LINE#         262
  C:1361H         LINE#         263
  C:1377H         LINE#         264
  C:1377H         LINE#         265
  C:139EH         LINE#         266
  C:13B3H         LINE#         267
  C:13B3H         LINE#         268
  C:13B7H         LINE#         269
  C:13B7H         LINE#         270
  C:13D8H         LINE#         271
  C:13DAH         LINE#         272
  C:13E0H         LINE#         273
  C:13E0H         LINE#         274
  C:1410H         LINE#         275
  C:1419H         LINE#         276
  -------         ENDPROC       _OLED_SHOWNUM
  -------         PROC          _OLED_SHOWSTRING
  X:0044H         SYMBOL        x
BL51 BANKED LINKER/LOCATER V6.22.4.0                                                  06/02/2025  23:22:16  PAGE 21


  X:0045H         SYMBOL        y
  X:0046H         SYMBOL        chr
  X:0049H         SYMBOL        sizey
  -------         DO            
  X:004AH         SYMBOL        j
  -------         ENDDO         
  C:1A93H         LINE#         278
  C:1AA4H         LINE#         279
  C:1AA4H         LINE#         280
  C:1AA9H         LINE#         281
  C:1AC2H         LINE#         282
  C:1AC2H         LINE#         283
  C:1AE5H         LINE#         284
  C:1AF6H         LINE#         285
  C:1B00H         LINE#         286
  C:1B02H         LINE#         287
  -------         ENDPROC       _OLED_SHOWSTRING
  -------         PROC          _OLED_SHOWCHINESE
  X:00BCH         SYMBOL        x
  X:00BDH         SYMBOL        y
  X:00BEH         SYMBOL        no
  X:00BFH         SYMBOL        sizey
  -------         DO            
  X:00C0H         SYMBOL        i
  X:00C2H         SYMBOL        size1
  -------         ENDDO         
  C:19A4H         LINE#         289
  C:19AFH         LINE#         290
  C:19AFH         LINE#         291
  C:19DFH         LINE#         292
  C:19FCH         LINE#         293
  C:19FCH         LINE#         294
  C:1A10H         LINE#         298
  C:1A20H         LINE#         299
  -------         ENDPROC       _OLED_SHOWCHINESE
  -------         PROC          _OLED_DRAWBMP
  X:0040H         SYMBOL        x
  X:0041H         SYMBOL        y
  X:0042H         SYMBOL        sizex
  X:0043H         SYMBOL        sizey
  X:0044H         SYMBOL        BMP
  -------         DO            
  X:0047H         SYMBOL        j
  X:0049H         SYMBOL        i
  X:004AH         SYMBOL        m
  -------         ENDDO         
  C:17F9H         LINE#         306
  C:1804H         LINE#         307
  C:1804H         LINE#         308
  C:180BH         LINE#         310
  C:1827H         LINE#         311
  C:183AH         LINE#         312
  C:183AH         LINE#         313
  C:1848H         LINE#         314
  C:185AH         LINE#         315
  C:185AH         LINE#         316
  C:187BH         LINE#         317
BL51 BANKED LINKER/LOCATER V6.22.4.0                                                  06/02/2025  23:22:16  PAGE 22


  C:1883H         LINE#         318
  C:188BH         LINE#         319
  -------         ENDPROC       _OLED_DRAWBMP
  -------         PROC          OLED_INIT
  C:168CH         LINE#         324
  C:168CH         LINE#         325
  C:168CH         LINE#         326
  C:168EH         LINE#         327
  C:1695H         LINE#         328
  C:1697H         LINE#         330
  C:169BH         LINE#         331
  C:169BH         LINE#         332
  C:169EH         LINE#         333
  C:16A5H         LINE#         334
  C:16ACH         LINE#         335
  C:16B3H         LINE#         336
  C:16BAH         LINE#         337
  C:16C1H         LINE#         338
  C:16C8H         LINE#         339
  C:16CFH         LINE#         340
  C:16D6H         LINE#         341
  C:16DDH         LINE#         342
  C:16E3H         LINE#         343
  C:16EAH         LINE#         344
  C:16F1H         LINE#         345
  C:16F8H         LINE#         346
  C:16FFH         LINE#         347
  C:1706H         LINE#         348
  C:170DH         LINE#         349
  C:1714H         LINE#         350
  C:171BH         LINE#         351
  C:1722H         LINE#         352
  C:1729H         LINE#         353
  C:1730H         LINE#         354
  C:1737H         LINE#         355
  C:173EH         LINE#         356
  C:1745H         LINE#         357
  C:1748H         LINE#         358
  -------         ENDPROC       OLED_INIT
  -------         PROC          _UPDATETIME
  X:0043H         SYMBOL        delta
  -------         DO            
  X:0045H         SYMBOL        total_sec
  -------         ENDDO         
  C:0F63H         LINE#         363
  C:0F6BH         LINE#         364
  C:0F6BH         LINE#         365
  C:0FAAH         LINE#         366
  C:0FD6H         LINE#         368
  C:0FF9H         LINE#         369
  C:101EH         LINE#         371
  C:103EH         LINE#         372
  C:106FH         LINE#         373
  C:1090H         LINE#         374
  -------         ENDPROC       _UPDATETIME
  -------         PROC          SHOWTIME
  -------         DO            
BL51 BANKED LINKER/LOCATER V6.22.4.0                                                  06/02/2025  23:22:16  PAGE 23


  X:0097H         SYMBOL        last_time
  -------         ENDDO         
  C:1A21H         LINE#         376
  C:1A21H         LINE#         377
  C:1A21H         LINE#         379
  C:1A31H         LINE#         380
  C:1A31H         LINE#         381
  C:1A75H         LINE#         382
  C:1A88H         LINE#         383
  C:1A92H         LINE#         384
  C:1A92H         LINE#         385
  -------         ENDPROC       SHOWTIME
  -------         ENDMOD        OLED

  -------         MODULE        BEEP
  C:0000H         SYMBOL        _ICE_DUMMY_
  D:0080H         PUBLIC        P0
  D:0090H         PUBLIC        P1
  D:00A0H         PUBLIC        P2
  C:117CH         PUBLIC        _PWM_Set
  D:00B0H         PUBLIC        P3
  D:00C0H         PUBLIC        P4
  D:00C8H         PUBLIC        P5
  D:00E8H         PUBLIC        P6
  B:00A8H.7       PUBLIC        EA
  D:00F8H         PUBLIC        P7
  D:00A8H         PUBLIC        IE
  D:00B8H         PUBLIC        IP
  B:00B0H.1       PUBLIC        BEEP
  X:00B5H         PUBLIC        highTicks
  D:00D8H         PUBLIC        CCON
  X:00B6H         PUBLIC        totalTicks
  C:1F69H         PUBLIC        PWM_OFF
  D:0098H         PUBLIC        SCON
  D:0089H         PUBLIC        TMOD
  D:0088H         PUBLIC        TCON
  X:00B8H         PUBLIC        pwmCounter
  B:00A8H.3       PUBLIC        ET1
  D:008DH         PUBLIC        TH1
  D:008BH         PUBLIC        TL1
  X:00B9H         PUBLIC        lowTicks
  B:0088H.6       PUBLIC        TR1
  B:0021H.7       PUBLIC        pwmHigh
  C:1BD7H         PUBLIC        TM1_Isr
  C:1F70H         PUBLIC        PWM_ON
  X:00BAH         PUBLIC        reload
  D:00D0H         PUBLIC        PSW
  -------         PROC          _PWM_SET
  D:0006H         SYMBOL        freq_hz
  X:0044H         SYMBOL        duty_percent
  -------         DO            
  X:00B2H         SYMBOL        last_freq
  X:00B4H         SYMBOL        last_duty
  X:0045H         SYMBOL        period_us
  X:0049H         SYMBOL        pwmInterval_us
  -------         ENDDO         
  C:117CH         LINE#         12
BL51 BANKED LINKER/LOCATER V6.22.4.0                                                  06/02/2025  23:22:16  PAGE 24


  C:1181H         LINE#         13
  C:1181H         LINE#         20
  C:1186H         LINE#         21
  C:1189H         LINE#         22
  C:1192H         LINE#         23
  C:1195H         LINE#         26
  C:11AEH         LINE#         29
  C:11B6H         LINE#         30
  C:11BEH         LINE#         33
  C:11D5H         LINE#         34
  C:11DEH         LINE#         37
  C:1206H         LINE#         38
  C:1222H         LINE#         39
  C:1229H         LINE#         42
  C:122CH         LINE#         43
  C:122FH         LINE#         45
  C:124FH         LINE#         46
  C:125AH         LINE#         47
  C:125DH         LINE#         49
  C:125FH         LINE#         50
  C:1261H         LINE#         51
  C:1263H         LINE#         52
  -------         ENDPROC       _PWM_SET
  -------         PROC          PWM_OFF
  C:1F69H         LINE#         53
  C:1F69H         LINE#         54
  C:1F69H         LINE#         55
  C:1F6BH         LINE#         56
  C:1F6DH         LINE#         57
  C:1F6FH         LINE#         58
  -------         ENDPROC       PWM_OFF
  -------         PROC          PWM_ON
  C:1F70H         LINE#         59
  C:1F70H         LINE#         60
  C:1F70H         LINE#         61
  C:1F72H         LINE#         62
  C:1F74H         LINE#         63
  C:1F76H         LINE#         64
  -------         ENDPROC       PWM_ON
  -------         PROC          TM1_ISR
  C:1BD7H         LINE#         66
  C:1BE8H         LINE#         69
  C:1BF2H         LINE#         70
  C:1BFDH         LINE#         71
  C:1C00H         LINE#         73
  C:1C06H         LINE#         74
  C:1C09H         LINE#         75
  C:1C09H         LINE#         76
  C:1C16H         LINE#         77
  C:1C16H         LINE#         78
  C:1C18H         LINE#         79
  C:1C1AH         LINE#         80
  C:1C1CH         LINE#         81
  C:1C1CH         LINE#         82
  C:1C1EH         LINE#         84
  C:1C1EH         LINE#         85
  C:1C2BH         LINE#         86
BL51 BANKED LINKER/LOCATER V6.22.4.0                                                  06/02/2025  23:22:16  PAGE 25


  C:1C2BH         LINE#         87
  C:1C2DH         LINE#         88
  C:1C2FH         LINE#         89
  C:1C31H         LINE#         90
  C:1C31H         LINE#         91
  C:1C31H         LINE#         92
  -------         ENDPROC       TM1_ISR
  -------         ENDMOD        BEEP

  -------         MODULE        ENCODER
  C:0000H         SYMBOL        _ICE_DUMMY_
  X:0071H         PUBLIC        time_m
  D:0080H         PUBLIC        P0
  D:0090H         PUBLIC        P1
  X:0073H         PUBLIC        sample_index
  D:00A0H         PUBLIC        P2
  D:00B0H         PUBLIC        P3
  X:0074H         PUBLIC        encoder_step
  D:00C0H         PUBLIC        P4
  X:0078H         PUBLIC        time_s
  D:00C8H         PUBLIC        P5
  D:00E8H         PUBLIC        P6
  D:00F8H         PUBLIC        P7
  X:007AH         PUBLIC        last_encoder_time
  D:00A8H         PUBLIC        IE
  X:007EH         PUBLIC        current_mode
  D:008FH         PUBLIC        INTCLKO
  D:00B8H         PUBLIC        IP
  D:00D8H         PUBLIC        CCON
  B:00C8H.5       PUBLIC        ENCODER_B
  C:14F1H         PUBLIC        INT2_Isr
  D:0098H         PUBLIC        SCON
  D:0088H         PUBLIC        TCON
  X:007FH         PUBLIC        encoder_samples
  B:0022H.0       PUBLIC        sampling_ready
  X:0083H         PUBLIC        time_h
  D:00D0H         PUBLIC        PSW
  C:001EH         PUBLIC        encoder_init
  -------         PROC          ENCODER_INIT
  C:001EH         LINE#         27
  C:001EH         LINE#         28
  C:001EH         LINE#         29
  C:0021H         LINE#         31
  -------         ENDPROC       ENCODER_INIT
  -------         PROC          INT2_ISR
  -------         DO            
  X:006CH         SYMBOL        now
  X:0070H         SYMBOL        direction
  -------         ENDDO         
  C:14F1H         LINE#         33
  C:150EH         LINE#         35
  C:1517H         LINE#         36
  C:1517H         LINE#         37
  C:1520H         LINE#         38
  C:1525H         LINE#         40
  C:1558H         LINE#         43
  C:156CH         LINE#         46
BL51 BANKED LINKER/LOCATER V6.22.4.0                                                  06/02/2025  23:22:16  PAGE 26


  C:1572H         LINE#         47
  C:1577H         LINE#         49
  C:157AH         LINE#         52
  C:1598H         LINE#         54
  C:15A3H         LINE#         55
  C:15A3H         LINE#         56
  C:15A5H         LINE#         57
  C:15A7H         LINE#         58
  C:15A7H         LINE#         59
  C:15A7H         LINE#         60
  -------         ENDPROC       INT2_ISR
  -------         ENDMOD        ENCODER

  -------         MODULE        TIMER0
  C:0000H         SYMBOL        _ICE_DUMMY_
  D:0080H         PUBLIC        P0
  D:0090H         PUBLIC        P1
  D:00A0H         PUBLIC        P2
  D:00B0H         PUBLIC        P3
  C:1C40H         PUBLIC        Timer0_ISR
  D:00C0H         PUBLIC        P4
  D:00C8H         PUBLIC        P5
  D:00E8H         PUBLIC        P6
  D:00F8H         PUBLIC        P7
  D:00A8H         PUBLIC        IE
  X:00C4H         PUBLIC        systick
  D:00B8H         PUBLIC        IP
  D:00D8H         PUBLIC        CCON
  C:1F4AH         PUBLIC        Timer0_Init
  D:0098H         PUBLIC        SCON
  D:0088H         PUBLIC        TCON
  D:008EH         PUBLIC        AUXR
  B:00A8H.1       PUBLIC        ET0
  D:008CH         PUBLIC        TH0
  D:008AH         PUBLIC        TL0
  C:1F2DH         PUBLIC        getsystick
  B:0088H.4       PUBLIC        TR0
  D:00D0H         PUBLIC        PSW
  -------         PROC          TIMER0_INIT
  C:1F4AH         LINE#         11
  C:1F4AH         LINE#         12
  C:1F4AH         LINE#         13
  C:1F4DH         LINE#         15
  C:1F50H         LINE#         16
  C:1F53H         LINE#         18
  C:1F55H         LINE#         19
  C:1F57H         LINE#         20
  -------         ENDPROC       TIMER0_INIT
  -------         PROC          GETSYSTICK
  C:1F2DH         LINE#         22
  C:1F2DH         LINE#         23
  C:1F2DH         LINE#         24
  C:1F3BH         LINE#         25
  -------         ENDPROC       GETSYSTICK
  -------         PROC          TIMER0_ISR
  C:1C40H         LINE#         28
  C:1C57H         LINE#         30
BL51 BANKED LINKER/LOCATER V6.22.4.0                                                  06/02/2025  23:22:16  PAGE 27


  C:1C5AH         LINE#         31
  C:1C5DH         LINE#         32
  C:1C7CH         LINE#         33
  -------         ENDPROC       TIMER0_ISR
  -------         ENDMOD        TIMER0

  -------         MODULE        ?C?CLDPTR
  C:0AD9H         PUBLIC        ?C?CLDPTR
  -------         ENDMOD        ?C?CLDPTR

  -------         MODULE        ?C?CLDOPTR
  C:0AF2H         PUBLIC        ?C?CLDOPTR
  -------         ENDMOD        ?C?CLDOPTR

  -------         MODULE        ?C?IMUL
  C:0B1FH         PUBLIC        ?C?IMUL
  -------         ENDMOD        ?C?IMUL

  -------         MODULE        ?C?UIDIV
  C:0B31H         PUBLIC        ?C?UIDIV
  -------         ENDMOD        ?C?UIDIV

  -------         MODULE        ?C?ILDIX
  C:0B86H         PUBLIC        ?C?ILDIX
  -------         ENDMOD        ?C?ILDIX

  -------         MODULE        ?C?LMUL
  C:0B9CH         PUBLIC        ?C?LMUL
  -------         ENDMOD        ?C?LMUL

  -------         MODULE        ?C?ULDIV
  C:0C27H         PUBLIC        ?C?ULDIV
  -------         ENDMOD        ?C?ULDIV

  -------         MODULE        ?C?ULCMP
  C:0CB9H         PUBLIC        ?C?ULCMP
  -------         ENDMOD        ?C?ULCMP

  -------         MODULE        ?C?LSTXDATA
  C:0CCAH         PUBLIC        ?C?LSTXDATA
  -------         ENDMOD        ?C?LSTXDATA

  -------         MODULE        ?C?LSTKXDATA
  C:0CD6H         PUBLIC        ?C?LSTKXDATA
  -------         ENDMOD        ?C?LSTKXDATA

  -------         MODULE        PRINTF
  X:0044H         PUBLIC        ?_PRINTF517?BYTE
  X:0044H         PUBLIC        ?_PRINTF?BYTE
  X:0044H         PUBLIC        ?_SPRINTF517?BYTE
  X:0044H         PUBLIC        ?_SPRINTF?BYTE
  C:0510H         PUBLIC        _PRINTF
  C:0510H         PUBLIC        _PRINTF517
  C:050AH         PUBLIC        _SPRINTF
  C:050AH         PUBLIC        _SPRINTF517
  -------         ENDMOD        PRINTF

BL51 BANKED LINKER/LOCATER V6.22.4.0                                                  06/02/2025  23:22:16  PAGE 28


  -------         MODULE        ?C?CSTPTR
  C:0D07H         PUBLIC        ?C?CSTPTR
  -------         ENDMOD        ?C?CSTPTR

  -------         MODULE        ?C?PLDIXDATA
  C:0D19H         PUBLIC        ?C?PLDIXDATA
  -------         ENDMOD        ?C?PLDIXDATA

  -------         MODULE        ?C?PSTXDATA
  C:0D30H         PUBLIC        ?C?PSTXDATA
  -------         ENDMOD        ?C?PSTXDATA

  -------         MODULE        ?C?CCASE
  C:0D39H         PUBLIC        ?C?CCASE
  -------         ENDMOD        ?C?CCASE

Program Size: data=16.1 xdata=204 code=8056
LINK/LOCATE RUN COMPLETE.  0 WARNING(S),  0 ERROR(S)
