BL51 BANKED LINKER/LOCATER V6.22.4.0                                                    06/28/2025  16:20:38  PAGE 1


BL51 BANKED LINKER/LOCATER V6.22.4.0, INVOKED BY:
D:\MCU\KEIL_V5\C51\BIN\BL51.EXE .\Objects\STARTUP.obj, .\Objects\main.obj, .\Objects\uart.obj, .\Objects\delay.obj, .\Ob
>> jects\eeprom.obj, .\Objects\oled.obj, .\Objects\beep.obj, .\Objects\encoder.obj, .\Objects\timer0.obj TO .\Objects\te
>> st PRINT (.\Listings\test.m51) RAMSIZE (256) DISABLEWARNING (16)


MEMORY MODEL: LARGE


INPUT MODULES INCLUDED:
  .\Objects\STARTUP.obj (?C_STARTUP)
  .\Objects\main.obj (MAIN)
  .\Objects\uart.obj (UART)
  .\Objects\delay.obj (DELAY)
  .\Objects\eeprom.obj (EEPROM)
  .\Objects\oled.obj (OLED)
  .\Objects\beep.obj (BEEP)
  .\Objects\encoder.obj (ENCODER)
  .\Objects\timer0.obj (TIMER0)
  D:\MCU\KEIL_V5\C51\LIB\C51L.LIB (?C_INIT)
  D:\MCU\KEIL_V5\C51\LIB\C51L.LIB (?C?CLDPTR)
  D:\MCU\KEIL_V5\C51\LIB\C51L.LIB (?C?CLDOPTR)
  D:\MCU\KEIL_V5\C51\LIB\C51L.LIB (?C?IMUL)
  D:\MCU\KEIL_V5\C51\LIB\C51L.LIB (?C?UIDIV)
  D:\MCU\KEIL_V5\C51\LIB\C51L.LIB (?C?ILDIX)
  D:\MCU\KEIL_V5\C51\LIB\C51L.LIB (?C?LMUL)
  D:\MCU\KEIL_V5\C51\LIB\C51L.LIB (?C?ULDIV)
  D:\MCU\KEIL_V5\C51\LIB\C51L.LIB (?C?ULCMP)
  D:\MCU\KEIL_V5\C51\LIB\C51L.LIB (?C?LSTXDATA)
  D:\MCU\KEIL_V5\C51\LIB\C51L.LIB (?C?LSTKXDATA)
  D:\MCU\KEIL_V5\C51\LIB\C51L.LIB (PRINTF)
  D:\MCU\KEIL_V5\C51\LIB\C51L.LIB (?C?CSTPTR)
  D:\MCU\KEIL_V5\C51\LIB\C51L.LIB (?C?PLDIXDATA)
  D:\MCU\KEIL_V5\C51\LIB\C51L.LIB (?C?PSTXDATA)
  D:\MCU\KEIL_V5\C51\LIB\C51L.LIB (?C?CCASE)


LINK MAP OF MODULE:  .\Objects\test (?C_STARTUP)


            TYPE    BASE      LENGTH    RELOCATION   SEGMENT NAME
            -----------------------------------------------------

            * * * * * * *   D A T A   M E M O R Y   * * * * * * *
            REG     0000H     0008H     ABSOLUTE     "REG BANK 0"
            DATA    0008H     0005H     UNIT         _DATA_GROUP_
                    000DH     0013H                  *** GAP ***
            BIT     0020H.0   0001H.1   UNIT         _BIT_GROUP_
            BIT     0021H.1   0000H.5   UNIT         ?BI?MAIN
            BIT     0021H.6   0000H.1   UNIT         ?BI?UART
            BIT     0021H.7   0000H.1   UNIT         ?BI?BEEP
            BIT     0022H.0   0000H.1   UNIT         ?BI?ENCODER
                    0022H.1   0000H.7                *** GAP ***
            IDATA   0023H     0001H     UNIT         ?STACK

            * * * * * * *  X D A T A   M E M O R Y  * * * * * * *
            XDATA   0000H     0040H     UNIT         ?XD?MAIN
            XDATA   0040H     0031H     UNIT         _XDATA_GROUP_
BL51 BANKED LINKER/LOCATER V6.22.4.0                                                  06/28/2025  16:20:38  PAGE 2


            XDATA   0071H     0014H     UNIT         ?XD?ENCODER
            XDATA   0085H     0012H     UNIT         ?XD?UART
            XDATA   0097H     0011H     UNIT         ?XD?OLED
            XDATA   00A8H     000AH     UNIT         ?XD?_OLED_SHOWNUM?OLED
            XDATA   00B2H     000AH     UNIT         ?XD?BEEP
            XDATA   00BCH     0008H     UNIT         ?XD?_OLED_SHOWCHINESE?OLED
            XDATA   00C4H     0004H     UNIT         ?XD?TIMER0
            XDATA   00C8H     0003H     UNIT         ?XD?_UARTSENDSTR?UART
            XDATA   00CBH     0001H     UNIT         ?XD?_OLED_POW?OLED

            * * * * * * *   C O D E   M E M O R Y   * * * * * * *
            CODE    0000H     0003H     ABSOLUTE     
            CODE    0003H     0008H     UNIT         ?PR?_UARTSEND?UART
            CODE    000BH     0003H     ABSOLUTE     
            CODE    000EH     000DH     UNIT         ?PR?IAPIDLE?EEPROM
            CODE    001BH     0003H     ABSOLUTE     
            CODE    001EH     0004H     UNIT         ?PR?ENCODER_INIT?ENCODER
                    0022H     0001H                  *** GAP ***
            CODE    0023H     0003H     ABSOLUTE     
            CODE    0026H     000AH     UNIT         ?PR?I2C_STOP?OLED
                    0030H     0003H                  *** GAP ***
            CODE    0033H     0003H     ABSOLUTE     
            CODE    0036H     001CH     UNIT         ?PR?UARTINIT?UART
                    0052H     0001H                  *** GAP ***
            CODE    0053H     0003H     ABSOLUTE     
            CODE    0056H     046FH     UNIT         ?CO?MAIN
            CODE    04C5H     0365H     UNIT         ?PR?PRINTF?PRINTF
            CODE    082AH     02CFH     UNIT         ?CO?OLED
            CODE    0AF9H     0286H     UNIT         ?C?LIB_CODE
            CODE    0D7FH     0204H     UNIT         ?PR?HANDLE_BUZZER?MAIN
            CODE    0F83H     012EH     UNIT         ?PR?_UPDATETIME?OLED
            CODE    10B1H     00EBH     UNIT         ?PR?_OLED_SHOWCHAR?OLED
            CODE    119CH     00E8H     UNIT         ?PR?_PWM_SET?BEEP
            CODE    1284H     00DBH     UNIT         ?PR?HANDLE_ENCODER?MAIN
            CODE    135FH     00DBH     UNIT         ?PR?_OLED_SHOWNUM?OLED
            CODE    143AH     00D7H     UNIT         ?PR?HANDLE_KEYPRESS?MAIN
            CODE    1511H     00D1H     UNIT         ?PR?INT2_ISR?ENCODER
            CODE    15E2H     00CAH     UNIT         ?PR?MAIN?MAIN
            CODE    16ACH     00C3H     UNIT         ?PR?OLED_INIT?OLED
            CODE    176FH     00AFH     UNIT         ?PR?UPDATEMODE?MAIN
            CODE    181EH     00AAH     UNIT         ?C_INITSEG
            CODE    18C8H     0093H     UNIT         ?PR?_OLED_DRAWBMP?OLED
            CODE    195BH     008CH     UNIT         ?C_C51STARTUP
            CODE    19E7H     007DH     UNIT         ?PR?_OLED_SHOWCHINESE?OLED
            CODE    1A64H     0072H     UNIT         ?PR?SHOWTIME?OLED
            CODE    1AD6H     0070H     UNIT         ?PR?_OLED_SHOWSTRING?OLED
            CODE    1B46H     006BH     UNIT         ?PR?CHECK_INACTIVITY_SLEEP?MAIN
            CODE    1BB1H     0069H     UNIT         ?PR?HANDLE_COUNTDOWN?MAIN
            CODE    1C1AH     0069H     UNIT         ?PR?TM1_ISR?BEEP
            CODE    1C83H     0051H     UNIT         ?PR?TIMER0_ISR?TIMER0
            CODE    1CD4H     0048H     UNIT         ?PR?UARTISR?UART
            CODE    1D1CH     0036H     UNIT         ?PR?_OLED_WR_BYTE?OLED
            CODE    1D52H     0033H     UNIT         ?PR?_UARTSENDSTR?UART
            CODE    1D85H     002CH     UNIT         ?PR?GPIO_INIT?MAIN
            CODE    1DB1H     002CH     UNIT         ?PR?_IAPPROGRAM?EEPROM
            CODE    1DDDH     002AH     UNIT         ?PR?_OLED_DISPLAYTURN?OLED
            CODE    1E07H     0029H     UNIT         ?PR?_OLED_SET_POS?OLED
BL51 BANKED LINKER/LOCATER V6.22.4.0                                                  06/28/2025  16:20:38  PAGE 3


            CODE    1E30H     0029H     UNIT         ?PR?OLED_CLEAR?OLED
            CODE    1E59H     0028H     UNIT         ?PR?_IAPERASE?EEPROM
            CODE    1E81H     0024H     UNIT         ?PR?_SEND_BYTE?OLED
            CODE    1EA5H     001EH     UNIT         ?PR?_OLED_POW?OLED
            CODE    1EC3H     001CH     UNIT         ?PR?_OLED_COLORTURN?OLED
            CODE    1EDFH     001BH     UNIT         ?PR?_IAPREAD?EEPROM
            CODE    1EFAH     001AH     UNIT         ?PR?_DELAY_US?DELAY
            CODE    1F14H     0018H     UNIT         ?PR?_DELAY_MS?DELAY
            CODE    1F2CH     0015H     UNIT         ?PR?OLED_DISPLAY_ON?OLED
            CODE    1F41H     0011H     UNIT         ?PR?_IAPSAFEWRITE?EEPROM
            CODE    1F52H     000FH     UNIT         ?PR?I2C_START?OLED
            CODE    1F61H     000FH     UNIT         ?PR?I2C_WAITACK?OLED
            CODE    1F70H     000FH     UNIT         ?PR?GETSYSTICK?TIMER0
            CODE    1F7FH     000EH     UNIT         ?PR?OLED_DISPLAY_OFF?OLED
            CODE    1F8DH     000EH     UNIT         ?PR?TIMER0_INIT?TIMER0
            CODE    1F9BH     0009H     UNIT         ?PR?IIC_DELAY?OLED
            CODE    1FA4H     0008H     UNIT         ?PR?_PUTCHAR?UART
            CODE    1FACH     0007H     UNIT         ?PR?PWM_OFF?BEEP
            CODE    1FB3H     0007H     UNIT         ?PR?PWM_ON?BEEP
            CODE    1FBAH     0006H     UNIT         ?PR?LVD_ISR?MAIN



OVERLAY MAP OF MODULE:   .\Objects\test (?C_STARTUP)


SEGMENT                                    BIT_GROUP          DATA_GROUP          XDATA_GROUP
  +--> CALLED SEGMENT                   START    LENGTH     START    LENGTH     START    LENGTH
-----------------------------------------------------------------------------------------------
?C_C51STARTUP                           -----    -----      -----    -----      -----    -----
  +--> ?PR?MAIN?MAIN
  +--> ?C_INITSEG

?PR?MAIN?MAIN                           -----    -----      -----    -----      -----    -----
  +--> ?PR?GPIO_INIT?MAIN
  +--> ?PR?ENCODER_INIT?ENCODER
  +--> ?PR?TIMER0_INIT?TIMER0
  +--> ?PR?OLED_INIT?OLED
  +--> ?PR?_OLED_COLORTURN?OLED
  +--> ?PR?_OLED_DISPLAYTURN?OLED
  +--> ?CO?MAIN
  +--> ?PR?PRINTF?PRINTF
  +--> ?PR?_OLED_SHOWSTRING?OLED
  +--> ?PR?_PWM_SET?BEEP
  +--> ?PR?GETSYSTICK?TIMER0
  +--> ?PR?HANDLE_KEYPRESS?MAIN
  +--> ?PR?HANDLE_ENCODER?MAIN
  +--> ?PR?HANDLE_COUNTDOWN?MAIN
  +--> ?PR?HANDLE_BUZZER?MAIN
  +--> ?PR?CHECK_INACTIVITY_SLEEP?MAIN
  +--> ?PR?SHOWTIME?OLED
  +--> ?PR?_OLED_DRAWBMP?OLED

?PR?OLED_INIT?OLED                      -----    -----      -----    -----      -----    -----
  +--> ?PR?_DELAY_MS?DELAY
  +--> ?PR?_OLED_WR_BYTE?OLED
  +--> ?PR?OLED_CLEAR?OLED
BL51 BANKED LINKER/LOCATER V6.22.4.0                                                  06/28/2025  16:20:38  PAGE 4



?PR?_DELAY_MS?DELAY                     -----    -----      -----    -----      -----    -----
  +--> ?PR?_DELAY_US?DELAY

?PR?_OLED_WR_BYTE?OLED                  -----    -----      -----    -----      -----    -----
  +--> ?PR?I2C_START?OLED
  +--> ?PR?_SEND_BYTE?OLED
  +--> ?PR?I2C_WAITACK?OLED
  +--> ?PR?I2C_STOP?OLED

?PR?I2C_START?OLED                      -----    -----      -----    -----      -----    -----
  +--> ?PR?IIC_DELAY?OLED

?PR?_SEND_BYTE?OLED                     -----    -----      -----    -----      -----    -----
  +--> ?PR?IIC_DELAY?OLED

?PR?I2C_WAITACK?OLED                    -----    -----      -----    -----      -----    -----
  +--> ?PR?IIC_DELAY?OLED

?PR?I2C_STOP?OLED                       -----    -----      -----    -----      -----    -----
  +--> ?PR?IIC_DELAY?OLED

?PR?OLED_CLEAR?OLED                     -----    -----      -----    -----      0044H    0001H
  +--> ?PR?_OLED_WR_BYTE?OLED

?PR?_OLED_COLORTURN?OLED                -----    -----      -----    -----      0040H    0001H
  +--> ?PR?_OLED_WR_BYTE?OLED

?PR?_OLED_DISPLAYTURN?OLED              -----    -----      -----    -----      0040H    0001H
  +--> ?PR?_OLED_WR_BYTE?OLED

?PR?PRINTF?PRINTF                       0020H.0  0001H.1    0008H    0005H      0044H    0028H
  +--> ?PR?_PUTCHAR?UART

?PR?_OLED_SHOWSTRING?OLED               -----    -----      -----    -----      0044H    0007H
  +--> ?PR?_OLED_SHOWCHAR?OLED

?PR?_OLED_SHOWCHAR?OLED                 -----    -----      -----    -----      004BH    000AH
  +--> ?PR?_OLED_SET_POS?OLED
  +--> ?CO?OLED
  +--> ?PR?_OLED_WR_BYTE?OLED

?PR?_OLED_SET_POS?OLED                  -----    -----      -----    -----      -----    -----
  +--> ?PR?_OLED_WR_BYTE?OLED

?PR?_PWM_SET?BEEP                       -----    -----      -----    -----      0044H    0007H

?PR?HANDLE_KEYPRESS?MAIN                -----    -----      -----    -----      0040H    0004H
  +--> ?PR?GETSYSTICK?TIMER0
  +--> ?PR?UPDATEMODE?MAIN
  +--> ?PR?_PWM_SET?BEEP
  +--> ?PR?PWM_ON?BEEP
  +--> ?PR?_DELAY_MS?DELAY
  +--> ?PR?PWM_OFF?BEEP

?PR?UPDATEMODE?MAIN                     -----    -----      -----    -----      -----    -----
  +--> ?PR?GETSYSTICK?TIMER0
BL51 BANKED LINKER/LOCATER V6.22.4.0                                                  06/28/2025  16:20:38  PAGE 5


  +--> ?PR?OLED_CLEAR?OLED
  +--> ?PR?_PWM_SET?BEEP
  +--> ?PR?PWM_ON?BEEP
  +--> ?PR?_DELAY_MS?DELAY
  +--> ?PR?PWM_OFF?BEEP
  +--> ?CO?MAIN
  +--> ?PR?PRINTF?PRINTF
  +--> ?PR?_OLED_SHOWSTRING?OLED
  +--> ?PR?_OLED_DRAWBMP?OLED

?PR?_OLED_DRAWBMP?OLED                  -----    -----      -----    -----      0044H    000BH
  +--> ?PR?_OLED_SET_POS?OLED
  +--> ?PR?_OLED_WR_BYTE?OLED

?PR?HANDLE_ENCODER?MAIN                 -----    -----      -----    -----      0040H    0003H
  +--> ?PR?GETSYSTICK?TIMER0
  +--> ?PR?_PWM_SET?BEEP
  +--> ?PR?PWM_ON?BEEP
  +--> ?PR?_DELAY_MS?DELAY
  +--> ?PR?PWM_OFF?BEEP
  +--> ?PR?_UPDATETIME?OLED

?PR?_UPDATETIME?OLED                    -----    -----      -----    -----      0043H    0006H

?PR?HANDLE_COUNTDOWN?MAIN               -----    -----      -----    -----      -----    -----
  +--> ?PR?GETSYSTICK?TIMER0
  +--> ?PR?_UPDATETIME?OLED

?PR?HANDLE_BUZZER?MAIN                  0020H.0  0000H.1    -----    -----      0040H    0004H
  +--> ?PR?GETSYSTICK?TIMER0
  +--> ?PR?_PWM_SET?BEEP
  +--> ?PR?PWM_ON?BEEP
  +--> ?PR?PWM_OFF?BEEP

?PR?CHECK_INACTIVITY_SLEEP?MAIN         -----    -----      -----    -----      -----    -----
  +--> ?PR?GETSYSTICK?TIMER0
  +--> ?PR?OLED_CLEAR?OLED
  +--> ?PR?PWM_OFF?BEEP
  +--> ?PR?GPIO_INIT?MAIN
  +--> ?PR?ENCODER_INIT?ENCODER
  +--> ?PR?TIMER0_INIT?TIMER0
  +--> ?PR?OLED_INIT?OLED
  +--> ?PR?_OLED_COLORTURN?OLED
  +--> ?PR?_OLED_DISPLAYTURN?OLED
  +--> ?PR?_PWM_SET?BEEP

?PR?SHOWTIME?OLED                       -----    -----      -----    -----      -----    -----
  +--> ?CO?OLED
  +--> ?PR?PRINTF?PRINTF
  +--> ?PR?_OLED_SHOWSTRING?OLED

*** NEW ROOT ***************************************************

?PR?INT2_ISR?ENCODER                    -----    -----      -----    -----      006CH    0005H
  +--> ?PR?GETSYSTICK?TIMER0


BL51 BANKED LINKER/LOCATER V6.22.4.0                                                  06/28/2025  16:20:38  PAGE 6



SYMBOL TABLE OF MODULE:  .\Objects\test (?C_STARTUP)

  VALUE           TYPE          NAME
  ----------------------------------

  -------         MODULE        ?C_STARTUP
  C:195BH         SEGMENT       ?C_C51STARTUP
  I:0023H         SEGMENT       ?STACK
  C:0000H         PUBLIC        ?C_STARTUP
  D:00E0H         SYMBOL        ACC
  D:00F0H         SYMBOL        B
  D:0083H         SYMBOL        DPH
  D:0082H         SYMBOL        DPL
  N:0000H         SYMBOL        IBPSTACK
  N:0100H         SYMBOL        IBPSTACKTOP
  N:0080H         SYMBOL        IDATALEN
  C:195EH         SYMBOL        IDATALOOP
  N:0000H         SYMBOL        PBPSTACK
  N:0100H         SYMBOL        PBPSTACKTOP
  N:0000H         SYMBOL        PDATALEN
  N:0000H         SYMBOL        PDATASTART
  N:0000H         SYMBOL        PPAGE
  N:0000H         SYMBOL        PPAGEENABLE
  D:00A0H         SYMBOL        PPAGE_SFR
  D:0081H         SYMBOL        SP
  C:195BH         SYMBOL        STARTUP1
  N:0000H         SYMBOL        XBPSTACK
  N:0000H         SYMBOL        XBPSTACKTOP
  N:0000H         SYMBOL        XDATALEN
  N:0000H         SYMBOL        XDATASTART
  C:0000H         LINE#         126
  C:195BH         LINE#         133
  C:195DH         LINE#         134
  C:195EH         LINE#         135
  C:195FH         LINE#         136
  C:1961H         LINE#         185
  C:1964H         LINE#         196
  -------         ENDMOD        ?C_STARTUP

  -------         MODULE        MAIN
  C:0000H         SYMBOL        _ICE_DUMMY_
  B:0021H.2       PUBLIC        beep_active
  D:0080H         PUBLIC        P0
  D:00B2H         PUBLIC        P3M0
  D:0090H         PUBLIC        P1
  D:00B1H         PUBLIC        P3M1
  D:00A0H         PUBLIC        P2
  D:00CAH         PUBLIC        P5M0
  D:00B0H         PUBLIC        P3
  X:000AH         PUBLIC        nokia_melody
  D:00C9H         PUBLIC        P5M1
  D:00C0H         PUBLIC        P4
  D:00C8H         PUBLIC        P5
  D:00E8H         PUBLIC        P6
  B:00A8H.7       PUBLIC        EA
  D:00F8H         PUBLIC        P7
BL51 BANKED LINKER/LOCATER V6.22.4.0                                                  06/28/2025  16:20:38  PAGE 7


  D:00A8H         PUBLIC        IE
  C:0065H         PUBLIC        BMP1
  B:0021H.3       PUBLIC        BAT_FLAGE
  X:0024H         PUBLIC        time_update
  D:00B8H         PUBLIC        IP
  B:00B0H.1       PUBLIC        BEEP
  X:0028H         PUBLIC        t0
  D:00D8H         PUBLIC        CCON
  C:15E2H         PUBLIC        main
  C:04A5H         PUBLIC        LOCK
  B:00A8H.6       PUBLIC        ELVD
  B:0021H.4       PUBLIC        WDT_FLAGE
  D:0087H         PUBLIC        PCON
  D:0098H         PUBLIC        SCON
  D:0088H         PUBLIC        TCON
  C:0D7FH         PUBLIC        Handle_Buzzer
  C:1FBAH         PUBLIC        Lvd_Isr
  C:1D85H         PUBLIC        gpio_init
  C:1B46H         PUBLIC        Check_Inactivity_Sleep
  D:00FFH         PUBLIC        RSTCFG
  X:002CH         PUBLIC        time_buf_main
  D:00C1H         PUBLIC        WDT_CONTR
  B:0021H.5       PUBLIC        beep_on
  X:003CH         PUBLIC        last_user_tick
  C:0465H         PUBLIC        BAT_0
  B:00B0H.0       PUBLIC        KEY
  C:143AH         PUBLIC        Handle_KeyPress
  C:176FH         PUBLIC        UpdateMode
  C:1284H         PUBLIC        Handle_Encoder
  C:1BB1H         PUBLIC        Handle_Countdown
  D:00D0H         PUBLIC        PSW
  -------         PROC          GPIO_INIT
  C:1D85H         LINE#         29
  C:1D85H         LINE#         30
  C:1D85H         LINE#         32
  C:1D88H         LINE#         33
  C:1D8BH         LINE#         36
  C:1D8EH         LINE#         37
  C:1D91H         LINE#         38
  C:1D98H         LINE#         40
  C:1D9BH         LINE#         41
  C:1D9EH         LINE#         44
  C:1DA1H         LINE#         45
  C:1DA4H         LINE#         48
  C:1DA7H         LINE#         49
  C:1DAAH         LINE#         52
  C:1DADH         LINE#         53
  C:1DB0H         LINE#         54
  -------         ENDPROC       GPIO_INIT
  -------         PROC          UPDATEMODE
  C:176FH         LINE#         56
  C:176FH         LINE#         57
  C:176FH         LINE#         59
  C:1780H         LINE#         60
  C:1789H         LINE#         61
  C:178CH         LINE#         62
  C:1795H         LINE#         63
BL51 BANKED LINKER/LOCATER V6.22.4.0                                                  06/28/2025  16:20:38  PAGE 8


  C:1798H         LINE#         64
  C:179FH         LINE#         65
  C:17A2H         LINE#         66
  C:17A4H         LINE#         67
  C:17E8H         LINE#         68
  C:17FBH         LINE#         69
  C:1802H         LINE#         70
  C:1802H         LINE#         71
  C:181DH         LINE#         72
  C:181DH         LINE#         73
  -------         ENDPROC       UPDATEMODE
  -------         PROC          HANDLE_KEYPRESS
  -------         DO            
  X:0000H         SYMBOL        key_mode
  B:0021H.1       SYMBOL        key_last
  X:0002H         SYMBOL        key_down_time
  -------         DO            
  X:0040H         SYMBOL        duration
  -------         ENDDO         
  -------         ENDDO         
  C:143AH         LINE#         75
  C:143AH         LINE#         76
  C:143AH         LINE#         81
  C:1440H         LINE#         82
  C:1440H         LINE#         83
  C:1443H         LINE#         84
  C:1443H         LINE#         85
  C:1445H         LINE#         86
  C:144EH         LINE#         87
  C:144EH         LINE#         89
  C:144EH         LINE#         90
  C:1472H         LINE#         91
  C:148DH         LINE#         92
  C:148DH         LINE#         93
  C:1496H         LINE#         94
  C:1496H         LINE#         95
  C:14C6H         LINE#         96
  C:14C6H         LINE#         97
  C:14CEH         LINE#         98
  C:14CEH         LINE#         99
  C:14CEH         LINE#         100
  C:14CFH         LINE#         102
  C:14CFH         LINE#         103
  C:14D2H         LINE#         104
  C:14D2H         LINE#         105
  C:14DEH         LINE#         106
  C:14DEH         LINE#         107
  C:14E1H         LINE#         108
  C:14E3H         LINE#         109
  C:14EFH         LINE#         110
  C:14EFH         LINE#         111
  C:14F8H         LINE#         112
  C:14FBH         LINE#         113
  C:1502H         LINE#         114
  C:1505H         LINE#         115
  C:1507H         LINE#         116
  C:1507H         LINE#         119
BL51 BANKED LINKER/LOCATER V6.22.4.0                                                  06/28/2025  16:20:38  PAGE 9


  C:150EH         LINE#         120
  C:1510H         LINE#         121
  C:1510H         LINE#         122
  C:1510H         LINE#         123
  -------         ENDPROC       HANDLE_KEYPRESS
  -------         PROC          HANDLE_ENCODER
  -------         DO            
  X:0040H         SYMBOL        sum
  X:0042H         SYMBOL        i
  -------         ENDDO         
  C:1284H         LINE#         126
  C:1284H         LINE#         127
  C:1284H         LINE#         128
  C:1287H         LINE#         129
  C:1287H         LINE#         130
  C:128EH         LINE#         131
  C:1290H         LINE#         132
  C:129DH         LINE#         133
  C:12C6H         LINE#         135
  C:12D8H         LINE#         136
  C:12E4H         LINE#         137
  C:12EFH         LINE#         138
  C:12F8H         LINE#         140
  C:12FFH         LINE#         142
  C:1301H         LINE#         143
  C:1301H         LINE#         144
  C:131BH         LINE#         145
  C:131BH         LINE#         146
  C:1324H         LINE#         147
  C:132DH         LINE#         148
  C:1330H         LINE#         149
  C:1337H         LINE#         150
  C:133AH         LINE#         151
  C:1354H         LINE#         152
  C:135EH         LINE#         153
  C:135EH         LINE#         154
  -------         ENDPROC       HANDLE_ENCODER
  -------         PROC          HANDLE_COUNTDOWN
  C:1BB1H         LINE#         157
  C:1BB1H         LINE#         158
  C:1BB1H         LINE#         159
  C:1BE4H         LINE#         160
  C:1BE4H         LINE#         161
  C:1BEDH         LINE#         162
  C:1BF4H         LINE#         163
  C:1C17H         LINE#         164
  C:1C17H         LINE#         165
  C:1C19H         LINE#         166
  C:1C19H         LINE#         167
  C:1C19H         LINE#         168
  -------         ENDPROC       HANDLE_COUNTDOWN
  -------         PROC          HANDLE_BUZZER
  B:0020H.0       SYMBOL        on
  -------         DO            
  X:0006H         SYMBOL        t0
  X:0040H         SYMBOL        elapsed
  -------         ENDDO         
BL51 BANKED LINKER/LOCATER V6.22.4.0                                                  06/28/2025  16:20:38  PAGE 10


  C:0D7FH         LINE#         175
  C:0D7FH         LINE#         176
  C:0D7FH         LINE#         180
  C:0D85H         LINE#         181
  C:0D85H         LINE#         182
  C:0D88H         LINE#         183
  C:0D88H         LINE#         184
  C:0D8AH         LINE#         185
  C:0D93H         LINE#         186
  C:0D93H         LINE#         188
  C:0DB7H         LINE#         190
  C:0DD1H         LINE#         191
  C:0DD7H         LINE#         192
  C:0DF2H         LINE#         193
  C:0DF8H         LINE#         194
  C:0E13H         LINE#         195
  C:0E19H         LINE#         196
  C:0E34H         LINE#         197
  C:0E3AH         LINE#         198
  C:0E55H         LINE#         199
  C:0E5BH         LINE#         200
  C:0E76H         LINE#         201
  C:0E7CH         LINE#         202
  C:0E97H         LINE#         203
  C:0E9DH         LINE#         204
  C:0EB8H         LINE#         205
  C:0EBEH         LINE#         206
  C:0ED9H         LINE#         207
  C:0EDEH         LINE#         208
  C:0EF9H         LINE#         209
  C:0EFEH         LINE#         210
  C:0F19H         LINE#         211
  C:0F1EH         LINE#         212
  C:0F39H         LINE#         213
  C:0F3EH         LINE#         214
  C:0F59H         LINE#         215
  C:0F68H         LINE#         218
  C:0F71H         LINE#         220
  C:0F74H         LINE#         221
  C:0F74H         LINE#         223
  C:0F74H         LINE#         224
  C:0F77H         LINE#         225
  C:0F79H         LINE#         226
  C:0F82H         LINE#         227
  C:0F82H         LINE#         228
  -------         ENDPROC       HANDLE_BUZZER
  -------         PROC          CHECK_INACTIVITY_SLEEP
  C:1B46H         LINE#         230
  C:1B46H         LINE#         231
  C:1B46H         LINE#         232
  C:1B4EH         LINE#         233
  C:1B4EH         LINE#         234
  C:1B79H         LINE#         235
  C:1B79H         LINE#         236
  C:1B7CH         LINE#         237
  C:1B7FH         LINE#         239
  C:1B82H         LINE#         240
BL51 BANKED LINKER/LOCATER V6.22.4.0                                                  06/28/2025  16:20:38  PAGE 11


  C:1B83H         LINE#         241
  C:1B84H         LINE#         243
  C:1B87H         LINE#         244
  C:1B89H         LINE#         245
  C:1B8CH         LINE#         246
  C:1B8FH         LINE#         247
  C:1B92H         LINE#         248
  C:1B97H         LINE#         249
  C:1B9CH         LINE#         250
  C:1BA5H         LINE#         251
  C:1BAEH         LINE#         252
  C:1BB0H         LINE#         253
  C:1BB0H         LINE#         254
  C:1BB0H         LINE#         255
  -------         ENDPROC       CHECK_INACTIVITY_SLEEP
  -------         PROC          MAIN
  C:15E2H         LINE#         259
  C:15E2H         LINE#         260
  C:15E2H         LINE#         261
  C:15E5H         LINE#         262
  C:15E7H         LINE#         263
  C:15EAH         LINE#         264
  C:15EDH         LINE#         265
  C:15F0H         LINE#         266
  C:15F5H         LINE#         267
  C:15FAH         LINE#         268
  C:163EH         LINE#         269
  C:1651H         LINE#         270
  C:165AH         LINE#         271
  C:165DH         LINE#         272
  C:165FH         LINE#         273
  C:1662H         LINE#         274
  C:1664H         LINE#         275
  C:1666H         LINE#         276
  C:1668H         LINE#         277
  C:1671H         LINE#         278
  C:1671H         LINE#         279
  C:1671H         LINE#         280
  C:1674H         LINE#         281
  C:1674H         LINE#         282
  C:1677H         LINE#         283
  C:1677H         LINE#         284
  C:167AH         LINE#         285
  C:167DH         LINE#         286
  C:1680H         LINE#         287
  C:1687H         LINE#         288
  C:168AH         LINE#         289
  C:168DH         LINE#         290
  C:1690H         LINE#         291
  C:16AAH         LINE#         292
  -------         ENDPROC       MAIN
  -------         PROC          LVD_ISR
  C:1FBAH         LINE#         295
  C:1FBAH         LINE#         297
  C:1FBDH         LINE#         298
  C:1FBFH         LINE#         299
  -------         ENDPROC       LVD_ISR
BL51 BANKED LINKER/LOCATER V6.22.4.0                                                  06/28/2025  16:20:38  PAGE 12


  -------         ENDMOD        MAIN

  -------         MODULE        UART
  C:0000H         SYMBOL        _ICE_DUMMY_
  D:0080H         PUBLIC        P0
  D:0090H         PUBLIC        P1
  D:00A0H         PUBLIC        P2
  D:00B0H         PUBLIC        P3
  D:00C0H         PUBLIC        P4
  D:00C8H         PUBLIC        P5
  D:00E8H         PUBLIC        P6
  D:00F8H         PUBLIC        P7
  D:00A8H         PUBLIC        IE
  D:00B8H         PUBLIC        IP
  B:0098H.0       PUBLIC        RI
  B:0098H.1       PUBLIC        TI
  D:00D8H         PUBLIC        CCON
  C:0003H         PUBLIC        _UartSend
  D:0099H         PUBLIC        SBUF
  D:0098H         PUBLIC        SCON
  C:0036H         PUBLIC        UartInit
  D:0089H         PUBLIC        TMOD
  D:0088H         PUBLIC        TCON
  D:008EH         PUBLIC        AUXR
  B:0021H.6       PUBLIC        busy
  X:0085H         PUBLIC        rptr
  D:008DH         PUBLIC        TH1
  C:1CD4H         PUBLIC        UartIsr
  X:0086H         PUBLIC        wptr
  D:008BH         PUBLIC        TL1
  B:0088H.6       PUBLIC        TR1
  C:1D52H         PUBLIC        _UartSendStr
  D:00D0H         PUBLIC        PSW
  C:1FA4H         PUBLIC        _putchar
  X:0087H         PUBLIC        buffer
  -------         PROC          UARTINIT
  C:0036H         LINE#         12
  C:0036H         LINE#         13
  C:0036H         LINE#         15
  C:0039H         LINE#         16
  C:003CH         LINE#         17
  C:003FH         LINE#         18
  C:0042H         LINE#         19
  C:0044H         LINE#         20
  C:0047H         LINE#         21
  C:004BH         LINE#         22
  C:004FH         LINE#         23
  C:0051H         LINE#         24
  -------         ENDPROC       UARTINIT
  -------         PROC          _UARTSEND
  D:0007H         SYMBOL        dat
  C:0003H         LINE#         25
  C:0003H         LINE#         26
  C:0003H         LINE#         27
  C:0006H         LINE#         28
  C:0008H         LINE#         29
  C:000AH         LINE#         30
BL51 BANKED LINKER/LOCATER V6.22.4.0                                                  06/28/2025  16:20:38  PAGE 13


  -------         ENDPROC       _UARTSEND
  -------         PROC          _UARTSENDSTR
  X:00C8H         SYMBOL        p
  C:1D52H         LINE#         31
  C:1D5DH         LINE#         32
  C:1D5DH         LINE#         33
  C:1D6DH         LINE#         34
  C:1D6DH         LINE#         35
  C:1D82H         LINE#         36
  C:1D84H         LINE#         37
  -------         ENDPROC       _UARTSENDSTR
  -------         PROC          UARTISR
  C:1CD4H         LINE#         40
  C:1CE3H         LINE#         42
  C:1CE6H         LINE#         43
  C:1CE6H         LINE#         44
  C:1CE8H         LINE#         45
  C:1CEAH         LINE#         46
  C:1CEAH         LINE#         47
  C:1CEDH         LINE#         48
  C:1CEDH         LINE#         49
  C:1CEFH         LINE#         50
  C:1D08H         LINE#         51
  C:1D0FH         LINE#         52
  C:1D0FH         LINE#         53
  -------         ENDPROC       UARTISR
  -------         PROC          _PUTCHAR
  D:0007H         SYMBOL        ch
  C:1FA4H         LINE#         55
  C:1FA4H         LINE#         56
  C:1FA4H         LINE#         57
  C:1FA6H         LINE#         58
  C:1FA9H         LINE#         59
  C:1FABH         LINE#         60
  C:1FABH         LINE#         61
  -------         ENDPROC       _PUTCHAR
  -------         ENDMOD        UART

  -------         MODULE        DELAY
  C:0000H         SYMBOL        _ICE_DUMMY_
  D:0080H         PUBLIC        P0
  D:0090H         PUBLIC        P1
  D:00A0H         PUBLIC        P2
  D:00B0H         PUBLIC        P3
  D:00C0H         PUBLIC        P4
  D:00C8H         PUBLIC        P5
  D:00E8H         PUBLIC        P6
  D:00F8H         PUBLIC        P7
  D:00A8H         PUBLIC        IE
  D:00B8H         PUBLIC        IP
  D:00D8H         PUBLIC        CCON
  C:1F14H         PUBLIC        _Delay_ms
  D:0098H         PUBLIC        SCON
  D:0088H         PUBLIC        TCON
  C:1EFAH         PUBLIC        _Delay_us
  D:00D0H         PUBLIC        PSW
  -------         PROC          _DELAY_US
BL51 BANKED LINKER/LOCATER V6.22.4.0                                                  06/28/2025  16:20:38  PAGE 14


  D:0006H         SYMBOL        us
  C:1EFAH         LINE#         3
  C:1EFAH         LINE#         4
  C:1EFAH         LINE#         5
  C:1F04H         LINE#         6
  C:1F08H         LINE#         7
  C:1F0CH         LINE#         8
  C:1F10H         LINE#         9
  C:1F11H         LINE#         10
  C:1F13H         LINE#         11
  -------         ENDPROC       _DELAY_US
  -------         PROC          _DELAY_MS
  D:0002H         SYMBOL        ms
  C:1F14H         LINE#         13
  C:1F18H         LINE#         14
  C:1F18H         LINE#         15
  C:1F22H         LINE#         16
  C:1F29H         LINE#         17
  C:1F2BH         LINE#         18
  -------         ENDPROC       _DELAY_MS
  -------         ENDMOD        DELAY

  -------         MODULE        EEPROM
  C:0000H         SYMBOL        _ICE_DUMMY_
  D:0080H         PUBLIC        P0
  D:0090H         PUBLIC        P1
  D:00A0H         PUBLIC        P2
  D:00B0H         PUBLIC        P3
  D:00C0H         PUBLIC        P4
  D:00C8H         PUBLIC        P5
  D:00E8H         PUBLIC        P6
  B:00A8H.7       PUBLIC        EA
  D:00F8H         PUBLIC        P7
  D:00A8H         PUBLIC        IE
  C:1E59H         PUBLIC        _IapErase
  D:00C5H         PUBLIC        IAP_CMD
  D:00B8H         PUBLIC        IP
  C:1EDFH         PUBLIC        _IapRead
  C:000EH         SYMBOL        IapIdle
  D:00C3H         PUBLIC        IAP_ADDRH
  D:00D8H         PUBLIC        CCON
  D:00C4H         PUBLIC        IAP_ADDRL
  C:1F41H         PUBLIC        _IapSafeWrite
  D:00F5H         PUBLIC        IAP_TPS
  D:0098H         PUBLIC        SCON
  D:0088H         PUBLIC        TCON
  D:00C7H         PUBLIC        IAP_CONTR
  D:00C2H         PUBLIC        IAP_DATA
  D:00C6H         PUBLIC        IAP_TRIG
  C:1DB1H         PUBLIC        _IapProgram
  D:00D0H         PUBLIC        PSW
  -------         PROC          IAPIDLE
  C:000EH         LINE#         4
  C:000EH         LINE#         5
  C:000EH         LINE#         6
  C:0011H         LINE#         7
  C:0013H         LINE#         8
BL51 BANKED LINKER/LOCATER V6.22.4.0                                                  06/28/2025  16:20:38  PAGE 15


  C:0015H         LINE#         9
  C:0018H         LINE#         10
  C:001AH         LINE#         11
  -------         ENDPROC       IAPIDLE
  -------         PROC          _IAPREAD
  D:0006H         SYMBOL        addr
  -------         DO            
  D:0007H         SYMBOL        dat
  -------         ENDDO         
  C:1EDFH         LINE#         13
  C:1EDFH         LINE#         14
  C:1EDFH         LINE#         16
  C:1EE2H         LINE#         17
  C:1EE5H         LINE#         18
  C:1EE8H         LINE#         19
  C:1EEAH         LINE#         20
  C:1EEEH         LINE#         21
  C:1EF1H         LINE#         22
  C:1EF4H         LINE#         23
  C:1EF5H         LINE#         24
  C:1EF7H         LINE#         25
  -------         ENDPROC       _IAPREAD
  -------         PROC          _IAPPROGRAM
  D:0006H         SYMBOL        addr
  D:0005H         SYMBOL        dat
  -------         DO            
  D:0004H         SYMBOL        EA_SAVE
  -------         ENDDO         
  C:1DB1H         LINE#         29
  C:1DB1H         LINE#         30
  C:1DB1H         LINE#         31
  C:1DB6H         LINE#         32
  C:1DB8H         LINE#         34
  C:1DBBH         LINE#         35
  C:1DBEH         LINE#         36
  C:1DC1H         LINE#         37
  C:1DC3H         LINE#         38
  C:1DC7H         LINE#         39
  C:1DCBH         LINE#         40
  C:1DCEH         LINE#         41
  C:1DD1H         LINE#         42
  C:1DD2H         LINE#         44
  C:1DD5H         LINE#         45
  C:1DDCH         LINE#         46
  -------         ENDPROC       _IAPPROGRAM
  -------         PROC          _IAPERASE
  D:0006H         SYMBOL        addr
  -------         DO            
  D:0005H         SYMBOL        EA_SAVE
  -------         ENDDO         
  C:1E59H         LINE#         48
  C:1E59H         LINE#         49
  C:1E59H         LINE#         50
  C:1E5EH         LINE#         51
  C:1E60H         LINE#         53
  C:1E63H         LINE#         54
  C:1E66H         LINE#         55
BL51 BANKED LINKER/LOCATER V6.22.4.0                                                  06/28/2025  16:20:38  PAGE 16


  C:1E69H         LINE#         56
  C:1E6BH         LINE#         57
  C:1E6FH         LINE#         58
  C:1E72H         LINE#         59
  C:1E75H         LINE#         60
  C:1E76H         LINE#         62
  C:1E79H         LINE#         63
  C:1E80H         LINE#         64
  -------         ENDPROC       _IAPERASE
  -------         PROC          _IAPSAFEWRITE
  D:0002H         SYMBOL        addr
  D:0005H         SYMBOL        dat
  C:1F41H         LINE#         67
  C:1F45H         LINE#         68
  C:1F45H         LINE#         69
  C:1F4CH         LINE#         70
  C:1F4CH         LINE#         71
  C:1F51H         LINE#         72
  C:1F51H         LINE#         73
  -------         ENDPROC       _IAPSAFEWRITE
  -------         ENDMOD        EEPROM

  -------         MODULE        OLED
  C:0000H         SYMBOL        _ICE_DUMMY_
  C:1F2CH         PUBLIC        OLED_Display_On
  D:0080H         PUBLIC        P0
  D:0090H         PUBLIC        P1
  D:00A0H         PUBLIC        P2
  C:1E81H         PUBLIC        _Send_Byte
  D:00B0H         PUBLIC        P3
  D:00C0H         PUBLIC        P4
  D:00C8H         PUBLIC        P5
  D:00E8H         PUBLIC        P6
  D:00F8H         PUBLIC        P7
  C:1DDDH         PUBLIC        _OLED_DisplayTurn
  D:00A8H         PUBLIC        IE
  C:0839H         PUBLIC        asc2_3216
  D:00B8H         PUBLIC        IP
  C:16ACH         PUBLIC        OLED_Init
  D:00D8H         PUBLIC        CCON
  C:1AD6H         PUBLIC        _OLED_ShowString
  C:1D29H         PUBLIC        _OLED_WR_Byte
  C:10B1H         PUBLIC        _OLED_ShowChar
  C:1F52H         PUBLIC        I2C_Start
  C:1EC3H         PUBLIC        _OLED_ColorTurn
  D:0098H         PUBLIC        SCON
  C:1A64H         PUBLIC        ShowTime
  D:0088H         PUBLIC        TCON
  C:1F61H         PUBLIC        I2C_WaitAck
  C:0026H         PUBLIC        I2C_Stop
  C:1E0EH         PUBLIC        _OLED_Set_Pos
  C:1F9BH         PUBLIC        IIC_delay
  X:0098H         PUBLIC        time_buf
  C:135FH         PUBLIC        _OLED_ShowNum
  C:1F7FH         PUBLIC        OLED_Display_Off
  C:1EA5H         PUBLIC        _oled_pow
  B:00B0H.2       PUBLIC        OLED_SDA
BL51 BANKED LINKER/LOCATER V6.22.4.0                                                  06/28/2025  16:20:38  PAGE 17


  B:00B0H.3       PUBLIC        OLED_SCL
  C:19E7H         PUBLIC        _OLED_ShowChinese
  C:1E30H         PUBLIC        OLED_Clear
  B:0090H.2       PUBLIC        OLED_RES
  C:18C8H         PUBLIC        _OLED_DrawBMP
  C:0F83H         PUBLIC        _UpdateTime
  D:00D0H         PUBLIC        PSW
  -------         PROC          _OLED_COLORTURN
  X:0040H         SYMBOL        i
  C:1EC3H         LINE#         19
  C:1EC8H         LINE#         20
  C:1EC8H         LINE#         21
  C:1ECAH         LINE#         22
  C:1ECAH         LINE#         23
  C:1ED0H         LINE#         24
  C:1ED0H         LINE#         25
  C:1ED7H         LINE#         26
  C:1ED7H         LINE#         27
  C:1EDEH         LINE#         28
  C:1EDEH         LINE#         29
  -------         ENDPROC       _OLED_COLORTURN
  -------         PROC          _OLED_DISPLAYTURN
  X:0040H         SYMBOL        i
  C:1DDDH         LINE#         32
  C:1DE2H         LINE#         33
  C:1DE2H         LINE#         34
  C:1DE4H         LINE#         35
  C:1DE4H         LINE#         36
  C:1DEAH         LINE#         37
  C:1DF1H         LINE#         38
  C:1DF1H         LINE#         39
  C:1DF8H         LINE#         40
  C:1DF8H         LINE#         41
  C:1DFFH         LINE#         42
  C:1E06H         LINE#         43
  C:1E06H         LINE#         44
  -------         ENDPROC       _OLED_DISPLAYTURN
  -------         PROC          IIC_DELAY
  -------         DO            
  D:0007H         SYMBOL        t
  -------         ENDDO         
  C:1F9BH         LINE#         47
  C:1F9BH         LINE#         48
  C:1F9BH         LINE#         49
  C:1F9DH         LINE#         50
  C:1FA3H         LINE#         51
  -------         ENDPROC       IIC_DELAY
  -------         PROC          I2C_START
  C:1F52H         LINE#         54
  C:1F52H         LINE#         55
  C:1F52H         LINE#         56
  C:1F54H         LINE#         57
  C:1F56H         LINE#         58
  C:1F59H         LINE#         59
  C:1F5BH         LINE#         60
  C:1F5EH         LINE#         61
  C:1F60H         LINE#         63
BL51 BANKED LINKER/LOCATER V6.22.4.0                                                  06/28/2025  16:20:38  PAGE 18


  -------         ENDPROC       I2C_START
  -------         PROC          I2C_STOP
  C:0026H         LINE#         66
  C:0026H         LINE#         67
  C:0026H         LINE#         68
  C:0028H         LINE#         69
  C:002AH         LINE#         70
  C:002DH         LINE#         71
  C:002FH         LINE#         72
  -------         ENDPROC       I2C_STOP
  -------         PROC          I2C_WAITACK
  C:1F61H         LINE#         75
  C:1F61H         LINE#         76
  C:1F61H         LINE#         77
  C:1F63H         LINE#         78
  C:1F66H         LINE#         79
  C:1F68H         LINE#         80
  C:1F6BH         LINE#         81
  C:1F6DH         LINE#         82
  -------         ENDPROC       I2C_WAITACK
  -------         PROC          _SEND_BYTE
  D:0005H         SYMBOL        dat
  -------         DO            
  D:0004H         SYMBOL        i
  -------         ENDDO         
  C:1E81H         LINE#         86
  C:1E83H         LINE#         87
  C:1E83H         LINE#         89
  C:1E85H         LINE#         90
  C:1E85H         LINE#         91
  C:1E87H         LINE#         92
  C:1E8BH         LINE#         93
  C:1E8BH         LINE#         94
  C:1E8DH         LINE#         95
  C:1E8FH         LINE#         97
  C:1E8FH         LINE#         98
  C:1E91H         LINE#         99
  C:1E91H         LINE#         100
  C:1E94H         LINE#         101
  C:1E96H         LINE#         102
  C:1E99H         LINE#         103
  C:1E9BH         LINE#         104
  C:1E9FH         LINE#         105
  C:1EA4H         LINE#         106
  -------         ENDPROC       _SEND_BYTE
  C:1D22H         SYMBOL        L?0087
  -------         PROC          L?0086
  -------         ENDPROC       L?0086
  C:1D22H         SYMBOL        L?0087
  -------         PROC          _OLED_WR_BYTE
  D:0002H         SYMBOL        dat
  D:0003H         SYMBOL        mode
  C:1D29H         LINE#         111
  C:1D2DH         LINE#         112
  C:1D2DH         LINE#         113
  C:1D30H         LINE#         114
  C:1D35H         LINE#         115
BL51 BANKED LINKER/LOCATER V6.22.4.0                                                  06/28/2025  16:20:38  PAGE 19


  C:1D38H         LINE#         116
  C:1D3FH         LINE#         117
  C:1D44H         LINE#         118
  C:1D47H         LINE#         119
  C:1D4CH         LINE#         120
  C:1D4FH         LINE#         121
  -------         ENDPROC       _OLED_WR_BYTE
  -------         PROC          L?0088
  -------         ENDPROC       L?0088
  -------         PROC          _OLED_SET_POS
  D:0001H         SYMBOL        x
  D:0005H         SYMBOL        y
  C:1E0EH         LINE#         191
  C:1E10H         LINE#         192
  C:1E10H         LINE#         193
  C:1E19H         LINE#         194
  C:1E27H         LINE#         195
  -------         ENDPROC       _OLED_SET_POS
  -------         PROC          OLED_DISPLAY_ON
  C:1F2CH         LINE#         198
  C:1F2CH         LINE#         199
  C:1F2CH         LINE#         200
  C:1F33H         LINE#         201
  C:1F3AH         LINE#         202
  -------         ENDPROC       OLED_DISPLAY_ON
  -------         PROC          OLED_DISPLAY_OFF
  C:1F7FH         LINE#         205
  C:1F7FH         LINE#         206
  C:1F7FH         LINE#         207
  C:1F83H         LINE#         208
  C:1F86H         LINE#         209
  -------         ENDPROC       OLED_DISPLAY_OFF
  -------         PROC          OLED_CLEAR
  -------         DO            
  D:0001H         SYMBOL        i
  X:0044H         SYMBOL        n
  -------         ENDDO         
  C:1E30H         LINE#         212
  C:1E30H         LINE#         213
  C:1E30H         LINE#         215
  C:1E32H         LINE#         216
  C:1E32H         LINE#         217
  C:1E38H         LINE#         218
  C:1E38H         LINE#         219
  C:1E3BH         LINE#         220
  C:1E53H         LINE#         221
  C:1E58H         LINE#         222
  -------         ENDPROC       OLED_CLEAR
  -------         PROC          _OLED_SHOWCHAR
  X:004BH         SYMBOL        x
  X:004CH         SYMBOL        y
  D:0003H         SYMBOL        chr
  X:004EH         SYMBOL        sizey
  -------         DO            
  X:004FH         SYMBOL        c
  X:0050H         SYMBOL        sizex
  X:0051H         SYMBOL        i
BL51 BANKED LINKER/LOCATER V6.22.4.0                                                  06/28/2025  16:20:38  PAGE 20


  X:0053H         SYMBOL        size1
  -------         ENDDO         
  C:10B1H         LINE#         228
  C:10B9H         LINE#         229
  C:10B9H         LINE#         230
  C:10CAH         LINE#         231
  C:10CFH         LINE#         232
  C:10DCH         LINE#         233
  C:110DH         LINE#         234
  C:1114H         LINE#         235
  C:111FH         LINE#         236
  C:113CH         LINE#         237
  C:113CH         LINE#         238
  C:1158H         LINE#         242
  C:118BH         LINE#         244
  C:119BH         LINE#         245
  -------         ENDPROC       _OLED_SHOWCHAR
  -------         PROC          _OLED_POW
  X:00CBH         SYMBOL        m
  D:0001H         SYMBOL        n
  -------         DO            
  D:0006H         SYMBOL        result
  -------         ENDDO         
  C:1EA5H         LINE#         247
  C:1EACH         LINE#         248
  C:1EACH         LINE#         249
  C:1EB0H         LINE#         250
  C:1EC2H         LINE#         251
  C:1EC2H         LINE#         252
  -------         ENDPROC       _OLED_POW
  -------         PROC          _OLED_SHOWNUM
  X:00A8H         SYMBOL        x
  X:00A9H         SYMBOL        y
  X:00AAH         SYMBOL        num
  X:00ACH         SYMBOL        len
  X:00ADH         SYMBOL        sizey
  -------         DO            
  X:00AEH         SYMBOL        t
  X:00AFH         SYMBOL        temp
  X:00B0H         SYMBOL        m
  X:00B1H         SYMBOL        enshow
  -------         ENDDO         
  C:135FH         LINE#         258
  C:136DH         LINE#         259
  C:136DH         LINE#         260
  C:1372H         LINE#         261
  C:1374H         LINE#         262
  C:1381H         LINE#         263
  C:1397H         LINE#         264
  C:1397H         LINE#         265
  C:13BEH         LINE#         266
  C:13D3H         LINE#         267
  C:13D3H         LINE#         268
  C:13D7H         LINE#         269
  C:13D7H         LINE#         270
  C:13F8H         LINE#         271
  C:13FAH         LINE#         272
BL51 BANKED LINKER/LOCATER V6.22.4.0                                                  06/28/2025  16:20:38  PAGE 21


  C:1400H         LINE#         273
  C:1400H         LINE#         274
  C:1430H         LINE#         275
  C:1439H         LINE#         276
  -------         ENDPROC       _OLED_SHOWNUM
  -------         PROC          _OLED_SHOWSTRING
  X:0044H         SYMBOL        x
  X:0045H         SYMBOL        y
  X:0046H         SYMBOL        chr
  X:0049H         SYMBOL        sizey
  -------         DO            
  X:004AH         SYMBOL        j
  -------         ENDDO         
  C:1AD6H         LINE#         278
  C:1AE7H         LINE#         279
  C:1AE7H         LINE#         280
  C:1AECH         LINE#         281
  C:1B05H         LINE#         282
  C:1B05H         LINE#         283
  C:1B28H         LINE#         284
  C:1B39H         LINE#         285
  C:1B43H         LINE#         286
  C:1B45H         LINE#         287
  -------         ENDPROC       _OLED_SHOWSTRING
  -------         PROC          _OLED_SHOWCHINESE
  X:00BCH         SYMBOL        x
  X:00BDH         SYMBOL        y
  X:00BEH         SYMBOL        no
  X:00BFH         SYMBOL        sizey
  -------         DO            
  X:00C0H         SYMBOL        i
  X:00C2H         SYMBOL        size1
  -------         ENDDO         
  C:19E7H         LINE#         289
  C:19F2H         LINE#         290
  C:19F2H         LINE#         291
  C:1A22H         LINE#         292
  C:1A3FH         LINE#         293
  C:1A3FH         LINE#         294
  C:1A53H         LINE#         298
  C:1A63H         LINE#         299
  -------         ENDPROC       _OLED_SHOWCHINESE
  -------         PROC          _OLED_DRAWBMP
  X:0044H         SYMBOL        x
  X:0045H         SYMBOL        y
  X:0046H         SYMBOL        sizex
  X:0047H         SYMBOL        sizey
  X:0048H         SYMBOL        BMP
  -------         DO            
  X:004BH         SYMBOL        j
  X:004DH         SYMBOL        i
  X:004EH         SYMBOL        m
  -------         ENDDO         
  C:18C8H         LINE#         306
  C:18D3H         LINE#         307
  C:18D3H         LINE#         308
  C:18DAH         LINE#         310
BL51 BANKED LINKER/LOCATER V6.22.4.0                                                  06/28/2025  16:20:38  PAGE 22


  C:18F6H         LINE#         311
  C:1909H         LINE#         312
  C:1909H         LINE#         313
  C:1917H         LINE#         314
  C:1929H         LINE#         315
  C:1929H         LINE#         316
  C:194AH         LINE#         317
  C:1952H         LINE#         318
  C:195AH         LINE#         319
  -------         ENDPROC       _OLED_DRAWBMP
  -------         PROC          OLED_INIT
  C:16ACH         LINE#         324
  C:16ACH         LINE#         325
  C:16ACH         LINE#         326
  C:16AEH         LINE#         327
  C:16B5H         LINE#         328
  C:16B7H         LINE#         330
  C:16BBH         LINE#         331
  C:16BBH         LINE#         332
  C:16BEH         LINE#         333
  C:16C5H         LINE#         334
  C:16CCH         LINE#         335
  C:16D3H         LINE#         336
  C:16DAH         LINE#         337
  C:16E1H         LINE#         338
  C:16E8H         LINE#         339
  C:16EFH         LINE#         340
  C:16F6H         LINE#         341
  C:16FDH         LINE#         342
  C:1703H         LINE#         343
  C:170AH         LINE#         344
  C:1711H         LINE#         345
  C:1718H         LINE#         346
  C:171FH         LINE#         347
  C:1726H         LINE#         348
  C:172DH         LINE#         349
  C:1734H         LINE#         350
  C:173BH         LINE#         351
  C:1742H         LINE#         352
  C:1749H         LINE#         353
  C:1750H         LINE#         354
  C:1757H         LINE#         355
  C:175EH         LINE#         356
  C:1765H         LINE#         357
  C:1768H         LINE#         358
  -------         ENDPROC       OLED_INIT
  -------         PROC          _UPDATETIME
  X:0043H         SYMBOL        delta
  -------         DO            
  X:0045H         SYMBOL        total_sec
  -------         ENDDO         
  C:0F83H         LINE#         363
  C:0F8BH         LINE#         364
  C:0F8BH         LINE#         365
  C:0FCAH         LINE#         366
  C:0FF6H         LINE#         368
  C:1019H         LINE#         369
BL51 BANKED LINKER/LOCATER V6.22.4.0                                                  06/28/2025  16:20:38  PAGE 23


  C:103EH         LINE#         371
  C:105EH         LINE#         372
  C:108FH         LINE#         373
  C:10B0H         LINE#         374
  -------         ENDPROC       _UPDATETIME
  -------         PROC          SHOWTIME
  -------         DO            
  X:0097H         SYMBOL        last_time
  -------         ENDDO         
  C:1A64H         LINE#         376
  C:1A64H         LINE#         377
  C:1A64H         LINE#         379
  C:1A74H         LINE#         380
  C:1A74H         LINE#         381
  C:1AB8H         LINE#         382
  C:1ACBH         LINE#         383
  C:1AD5H         LINE#         384
  C:1AD5H         LINE#         385
  -------         ENDPROC       SHOWTIME
  -------         ENDMOD        OLED

  -------         MODULE        BEEP
  C:0000H         SYMBOL        _ICE_DUMMY_
  D:0080H         PUBLIC        P0
  D:0090H         PUBLIC        P1
  D:00A0H         PUBLIC        P2
  C:119CH         PUBLIC        _PWM_Set
  D:00B0H         PUBLIC        P3
  D:00C0H         PUBLIC        P4
  D:00C8H         PUBLIC        P5
  D:00E8H         PUBLIC        P6
  B:00A8H.7       PUBLIC        EA
  D:00F8H         PUBLIC        P7
  D:00A8H         PUBLIC        IE
  D:00B8H         PUBLIC        IP
  B:00B0H.1       PUBLIC        BEEP
  X:00B5H         PUBLIC        highTicks
  D:00D8H         PUBLIC        CCON
  X:00B6H         PUBLIC        totalTicks
  C:1FACH         PUBLIC        PWM_OFF
  D:0098H         PUBLIC        SCON
  D:0089H         PUBLIC        TMOD
  D:0088H         PUBLIC        TCON
  X:00B8H         PUBLIC        pwmCounter
  B:00A8H.3       PUBLIC        ET1
  D:008DH         PUBLIC        TH1
  D:008BH         PUBLIC        TL1
  X:00B9H         PUBLIC        lowTicks
  B:0088H.6       PUBLIC        TR1
  B:0021H.7       PUBLIC        pwmHigh
  C:1C1AH         PUBLIC        TM1_Isr
  C:1FB3H         PUBLIC        PWM_ON
  X:00BAH         PUBLIC        reload
  D:00D0H         PUBLIC        PSW
  -------         PROC          _PWM_SET
  D:0006H         SYMBOL        freq_hz
  X:0044H         SYMBOL        duty_percent
BL51 BANKED LINKER/LOCATER V6.22.4.0                                                  06/28/2025  16:20:38  PAGE 24


  -------         DO            
  X:00B2H         SYMBOL        last_freq
  X:00B4H         SYMBOL        last_duty
  X:0045H         SYMBOL        period_us
  X:0049H         SYMBOL        pwmInterval_us
  -------         ENDDO         
  C:119CH         LINE#         12
  C:11A1H         LINE#         13
  C:11A1H         LINE#         20
  C:11A6H         LINE#         21
  C:11A9H         LINE#         22
  C:11B2H         LINE#         23
  C:11B5H         LINE#         26
  C:11CEH         LINE#         29
  C:11D6H         LINE#         30
  C:11DEH         LINE#         33
  C:11F5H         LINE#         34
  C:11FEH         LINE#         37
  C:1226H         LINE#         38
  C:1242H         LINE#         39
  C:1249H         LINE#         42
  C:124CH         LINE#         43
  C:124FH         LINE#         45
  C:126FH         LINE#         46
  C:127AH         LINE#         47
  C:127DH         LINE#         49
  C:127FH         LINE#         50
  C:1281H         LINE#         51
  C:1283H         LINE#         52
  -------         ENDPROC       _PWM_SET
  -------         PROC          PWM_OFF
  C:1FACH         LINE#         53
  C:1FACH         LINE#         54
  C:1FACH         LINE#         55
  C:1FAEH         LINE#         56
  C:1FB0H         LINE#         57
  C:1FB2H         LINE#         58
  -------         ENDPROC       PWM_OFF
  -------         PROC          PWM_ON
  C:1FB3H         LINE#         59
  C:1FB3H         LINE#         60
  C:1FB3H         LINE#         61
  C:1FB5H         LINE#         62
  C:1FB7H         LINE#         63
  C:1FB9H         LINE#         64
  -------         ENDPROC       PWM_ON
  -------         PROC          TM1_ISR
  C:1C1AH         LINE#         66
  C:1C2BH         LINE#         69
  C:1C35H         LINE#         70
  C:1C40H         LINE#         71
  C:1C43H         LINE#         73
  C:1C49H         LINE#         74
  C:1C4CH         LINE#         75
  C:1C4CH         LINE#         76
  C:1C59H         LINE#         77
  C:1C59H         LINE#         78
BL51 BANKED LINKER/LOCATER V6.22.4.0                                                  06/28/2025  16:20:38  PAGE 25


  C:1C5BH         LINE#         79
  C:1C5DH         LINE#         80
  C:1C5FH         LINE#         81
  C:1C5FH         LINE#         82
  C:1C61H         LINE#         84
  C:1C61H         LINE#         85
  C:1C6EH         LINE#         86
  C:1C6EH         LINE#         87
  C:1C70H         LINE#         88
  C:1C72H         LINE#         89
  C:1C74H         LINE#         90
  C:1C74H         LINE#         91
  C:1C74H         LINE#         92
  -------         ENDPROC       TM1_ISR
  -------         ENDMOD        BEEP

  -------         MODULE        ENCODER
  C:0000H         SYMBOL        _ICE_DUMMY_
  X:0071H         PUBLIC        time_m
  D:0080H         PUBLIC        P0
  D:0090H         PUBLIC        P1
  X:0073H         PUBLIC        sample_index
  D:00A0H         PUBLIC        P2
  D:00B0H         PUBLIC        P3
  X:0074H         PUBLIC        encoder_step
  D:00C0H         PUBLIC        P4
  X:0078H         PUBLIC        time_s
  D:00C8H         PUBLIC        P5
  D:00E8H         PUBLIC        P6
  D:00F8H         PUBLIC        P7
  X:007AH         PUBLIC        last_encoder_time
  D:00A8H         PUBLIC        IE
  X:007EH         PUBLIC        current_mode
  D:008FH         PUBLIC        INTCLKO
  D:00B8H         PUBLIC        IP
  D:00D8H         PUBLIC        CCON
  B:00C8H.5       PUBLIC        ENCODER_B
  C:1511H         PUBLIC        INT2_Isr
  D:0098H         PUBLIC        SCON
  D:0088H         PUBLIC        TCON
  X:007FH         PUBLIC        encoder_samples
  B:0022H.0       PUBLIC        sampling_ready
  X:0083H         PUBLIC        time_h
  D:00D0H         PUBLIC        PSW
  C:001EH         PUBLIC        encoder_init
  -------         PROC          ENCODER_INIT
  C:001EH         LINE#         27
  C:001EH         LINE#         28
  C:001EH         LINE#         29
  C:0021H         LINE#         31
  -------         ENDPROC       ENCODER_INIT
  -------         PROC          INT2_ISR
  -------         DO            
  X:006CH         SYMBOL        now
  X:0070H         SYMBOL        direction
  -------         ENDDO         
  C:1511H         LINE#         33
BL51 BANKED LINKER/LOCATER V6.22.4.0                                                  06/28/2025  16:20:38  PAGE 26


  C:152EH         LINE#         35
  C:1537H         LINE#         36
  C:1537H         LINE#         37
  C:1540H         LINE#         38
  C:1545H         LINE#         40
  C:1578H         LINE#         43
  C:158CH         LINE#         46
  C:1592H         LINE#         47
  C:1597H         LINE#         49
  C:159AH         LINE#         52
  C:15B8H         LINE#         54
  C:15C3H         LINE#         55
  C:15C3H         LINE#         56
  C:15C5H         LINE#         57
  C:15C7H         LINE#         58
  C:15C7H         LINE#         59
  C:15C7H         LINE#         60
  -------         ENDPROC       INT2_ISR
  -------         ENDMOD        ENCODER

  -------         MODULE        TIMER0
  C:0000H         SYMBOL        _ICE_DUMMY_
  D:0080H         PUBLIC        P0
  D:0090H         PUBLIC        P1
  D:00A0H         PUBLIC        P2
  D:00B0H         PUBLIC        P3
  C:1C83H         PUBLIC        Timer0_ISR
  D:00C0H         PUBLIC        P4
  D:00C8H         PUBLIC        P5
  D:00E8H         PUBLIC        P6
  D:00F8H         PUBLIC        P7
  D:00A8H         PUBLIC        IE
  X:00C4H         PUBLIC        systick
  D:00B8H         PUBLIC        IP
  D:00D8H         PUBLIC        CCON
  C:1F8DH         PUBLIC        Timer0_Init
  D:0098H         PUBLIC        SCON
  D:0088H         PUBLIC        TCON
  D:008EH         PUBLIC        AUXR
  B:00A8H.1       PUBLIC        ET0
  D:008CH         PUBLIC        TH0
  D:008AH         PUBLIC        TL0
  C:1F70H         PUBLIC        getsystick
  B:0088H.4       PUBLIC        TR0
  D:00D0H         PUBLIC        PSW
  -------         PROC          TIMER0_INIT
  C:1F8DH         LINE#         11
  C:1F8DH         LINE#         12
  C:1F8DH         LINE#         13
  C:1F90H         LINE#         15
  C:1F93H         LINE#         16
  C:1F96H         LINE#         18
  C:1F98H         LINE#         19
  C:1F9AH         LINE#         20
  -------         ENDPROC       TIMER0_INIT
  -------         PROC          GETSYSTICK
  C:1F70H         LINE#         22
BL51 BANKED LINKER/LOCATER V6.22.4.0                                                  06/28/2025  16:20:38  PAGE 27


  C:1F70H         LINE#         23
  C:1F70H         LINE#         24
  C:1F7EH         LINE#         25
  -------         ENDPROC       GETSYSTICK
  -------         PROC          TIMER0_ISR
  C:1C83H         LINE#         28
  C:1C9AH         LINE#         30
  C:1C9DH         LINE#         31
  C:1CA0H         LINE#         32
  C:1CBFH         LINE#         33
  -------         ENDPROC       TIMER0_ISR
  -------         ENDMOD        TIMER0

  -------         MODULE        ?C?CLDPTR
  C:0AF9H         PUBLIC        ?C?CLDPTR
  -------         ENDMOD        ?C?CLDPTR

  -------         MODULE        ?C?CLDOPTR
  C:0B12H         PUBLIC        ?C?CLDOPTR
  -------         ENDMOD        ?C?CLDOPTR

  -------         MODULE        ?C?IMUL
  C:0B3FH         PUBLIC        ?C?IMUL
  -------         ENDMOD        ?C?IMUL

  -------         MODULE        ?C?UIDIV
  C:0B51H         PUBLIC        ?C?UIDIV
  -------         ENDMOD        ?C?UIDIV

  -------         MODULE        ?C?ILDIX
  C:0BA6H         PUBLIC        ?C?ILDIX
  -------         ENDMOD        ?C?ILDIX

  -------         MODULE        ?C?LMUL
  C:0BBCH         PUBLIC        ?C?LMUL
  -------         ENDMOD        ?C?LMUL

  -------         MODULE        ?C?ULDIV
  C:0C47H         PUBLIC        ?C?ULDIV
  -------         ENDMOD        ?C?ULDIV

  -------         MODULE        ?C?ULCMP
  C:0CD9H         PUBLIC        ?C?ULCMP
  -------         ENDMOD        ?C?ULCMP

  -------         MODULE        ?C?LSTXDATA
  C:0CEAH         PUBLIC        ?C?LSTXDATA
  -------         ENDMOD        ?C?LSTXDATA

  -------         MODULE        ?C?LSTKXDATA
  C:0CF6H         PUBLIC        ?C?LSTKXDATA
  -------         ENDMOD        ?C?LSTKXDATA

  -------         MODULE        PRINTF
  X:0044H         PUBLIC        ?_PRINTF517?BYTE
  X:0044H         PUBLIC        ?_PRINTF?BYTE
  X:0044H         PUBLIC        ?_SPRINTF517?BYTE
BL51 BANKED LINKER/LOCATER V6.22.4.0                                                  06/28/2025  16:20:38  PAGE 28


  X:0044H         PUBLIC        ?_SPRINTF?BYTE
  C:0530H         PUBLIC        _PRINTF
  C:0530H         PUBLIC        _PRINTF517
  C:052AH         PUBLIC        _SPRINTF
  C:052AH         PUBLIC        _SPRINTF517
  -------         ENDMOD        PRINTF

  -------         MODULE        ?C?CSTPTR
  C:0D27H         PUBLIC        ?C?CSTPTR
  -------         ENDMOD        ?C?CSTPTR

  -------         MODULE        ?C?PLDIXDATA
  C:0D39H         PUBLIC        ?C?PLDIXDATA
  -------         ENDMOD        ?C?PLDIXDATA

  -------         MODULE        ?C?PSTXDATA
  C:0D50H         PUBLIC        ?C?PSTXDATA
  -------         ENDMOD        ?C?PSTXDATA

  -------         MODULE        ?C?CCASE
  C:0D59H         PUBLIC        ?C?CCASE
  -------         ENDMOD        ?C?CCASE

Program Size: data=16.1 xdata=204 code=8123
LINK/LOCATE RUN COMPLETE.  0 WARNING(S),  0 ERROR(S)
