BL51 BANKED LINKER/LOCATER V6.22.4.0                                                    05/25/2025  13:09:47  PAGE 1


BL51 BANKED LINKER/LOCATER V6.22.4.0, INVOKED BY:
D:\MCU\KEIL_V5\C51\BIN\BL51.EXE .\Objects\STARTUP.obj, .\Objects\main.obj, .\Objects\uart.obj, .\Objects\delay.obj, .\Ob
>> jects\eeprom.obj, .\Objects\oled.obj, .\Objects\beep.obj TO .\Objects\test PRINT (.\Listings\test.m51) RAMSIZE (256) 
>> DISABLEWARNING (16)


MEMORY MODEL: SMALL


INPUT MODULES INCLUDED:
  .\Objects\STARTUP.obj (?C_STARTUP)
  .\Objects\main.obj (MAIN)
  .\Objects\uart.obj (UART)
  .\Objects\delay.obj (DELAY)
  .\Objects\eeprom.obj (EEPROM)
  .\Objects\oled.obj (OLED)
  .\Objects\beep.obj (BEEP)
  D:\MCU\KEIL_V5\C51\LIB\C51S.LIB (?C_INIT)
  D:\MCU\KEIL_V5\C51\LIB\C51S.LIB (?C?CLDPTR)
  D:\MCU\KEIL_V5\C51\LIB\C51S.LIB (?C?CLDOPTR)
  D:\MCU\KEIL_V5\C51\LIB\C51S.LIB (?C?IMUL)
  D:\MCU\KEIL_V5\C51\LIB\C51S.LIB (?C?UIDIV)
  D:\MCU\KEIL_V5\C51\LIB\C51S.LIB (?C?LMUL)
  D:\MCU\KEIL_V5\C51\LIB\C51S.LIB (?C?ULDIV)
  D:\MCU\KEIL_V5\C51\LIB\C51S.LIB (?C?ULCMP)
  D:\MCU\KEIL_V5\C51\LIB\C51S.LIB (PRINTF)
  D:\MCU\KEIL_V5\C51\LIB\C51S.LIB (?C?CSTPTR)
  D:\MCU\KEIL_V5\C51\LIB\C51S.LIB (?C?PLDIIDATA)
  D:\MCU\KEIL_V5\C51\LIB\C51S.LIB (?C?CCASE)


LINK MAP OF MODULE:  .\Objects\test (?C_STARTUP)


            TYPE    BASE      LENGTH    RELOCATION   SEGMENT NAME
            -----------------------------------------------------

            * * * * * * *   D A T A   M E M O R Y   * * * * * * *
            REG     0000H     0008H     ABSOLUTE     "REG BANK 0"
            DATA    0008H     0014H     UNIT         _DATA_GROUP_
            DATA    001CH     0003H     UNIT         ?DT?_UARTSENDSTR?UART
            DATA    001FH     0001H     UNIT         ?DT?MAIN
            BIT     0020H.0   0001H.1   UNIT         _BIT_GROUP_
            BIT     0021H.1   0000H.1   UNIT         ?BI?UART
                    0021H.2   0000H.6                *** GAP ***
            DATA    0022H     0012H     UNIT         ?DT?UART
            DATA    0034H     000BH     UNIT         ?DT?_OLED_DRAWBMP?OLED
            DATA    003FH     000AH     UNIT         ?DT?_OLED_SHOWNUM?OLED
            DATA    0049H     0009H     UNIT         ?DT?_BUZZER_SET?BEEP
            DATA    0052H     0008H     UNIT         ?DT?_OLED_SHOWCHINESE?OLED
            DATA    005AH     0002H     UNIT         ?DT?_BEEP_NOTE?BEEP
            DATA    005CH     0001H     UNIT         ?DT?_OLED_POW?OLED
            IDATA   005DH     0001H     UNIT         ?STACK

            * * * * * * *   C O D E   M E M O R Y   * * * * * * *
            CODE    0000H     0003H     ABSOLUTE     
            CODE    0003H     001BH     UNIT         ?PR?_IAPREAD?EEPROM
            CODE    001EH     0004H     UNIT         ?C_INITSEG
BL51 BANKED LINKER/LOCATER V6.22.4.0                                                  05/25/2025  13:09:47  PAGE 2


                    0022H     0001H                  *** GAP ***
            CODE    0023H     0003H     ABSOLUTE     
            CODE    0026H     0BB8H     UNIT         ?CO?OLED
            CODE    0BDEH     0417H     UNIT         ?CO?MAIN
            CODE    0FF5H     035CH     UNIT         ?PR?PRINTF?PRINTF
            CODE    1351H     0223H     UNIT         ?C?LIB_CODE
            CODE    1574H     00E6H     UNIT         ?PR?_OLED_SHOWCHAR?OLED
            CODE    165AH     00C3H     UNIT         ?PR?OLED_INIT?OLED
            CODE    171DH     009BH     UNIT         ?PR?_BUZZER_SET?BEEP
            CODE    17B8H     008CH     UNIT         ?C_C51STARTUP
            CODE    1844H     008BH     UNIT         ?PR?_OLED_SHOWCHINESE?OLED
            CODE    18CFH     0089H     UNIT         ?PR?_OLED_SHOWNUM?OLED
            CODE    1958H     0068H     UNIT         ?PR?_OLED_DRAWBMP?OLED
            CODE    19C0H     0049H     UNIT         ?PR?_OLED_SHOWSTRING?OLED
            CODE    1A09H     003DH     UNIT         ?PR?MAIN?MAIN
            CODE    1A46H     0039H     UNIT         ?PR?PLAY_MELODY?BEEP
            CODE    1A7FH     0036H     UNIT         ?PR?_OLED_WR_BYTE?OLED
            CODE    1AB5H     002DH     UNIT         ?PR?UARTISR?UART
            CODE    1AE2H     0028H     UNIT         ?PR?_IAPPROGRAM?EEPROM
            CODE    1B0AH     0027H     UNIT         ?PR?_OLED_DISPLAYTURN?OLED
            CODE    1B31H     0026H     UNIT         ?PR?_IAPERASE?EEPROM
            CODE    1B57H     0026H     UNIT         ?PR?_BEEP_NOTE?BEEP
            CODE    1B7DH     0025H     UNIT         ?PR?_UARTSENDSTR?UART
            CODE    1BA2H     0023H     UNIT         ?PR?_SEND_BYTE?OLED
            CODE    1BC5H     0023H     UNIT         ?PR?OLED_CLEAR?OLED
            CODE    1BE8H     0022H     UNIT         ?PR?_OLED_SET_POS?OLED
            CODE    1C0AH     001AH     UNIT         ?PR?_DELAY_US?DELAY
            CODE    1C24H     0019H     UNIT         ?PR?_OLED_COLORTURN?OLED
            CODE    1C3DH     0018H     UNIT         ?PR?UARTINIT?UART
            CODE    1C55H     0018H     UNIT         ?PR?_DELAY_MS?DELAY
            CODE    1C6DH     0018H     UNIT         ?PR?_OLED_POW?OLED
            CODE    1C85H     0015H     UNIT         ?PR?OLED_DISPLAY_ON?OLED
            CODE    1C9AH     0011H     UNIT         ?PR?_IAPSAFEWRITE?EEPROM
            CODE    1CABH     0011H     UNIT         ?PR?PWM_INIT?BEEP
            CODE    1CBCH     000FH     UNIT         ?PR?I2C_START?OLED
            CODE    1CCBH     000FH     UNIT         ?PR?I2C_WAITACK?OLED
            CODE    1CDAH     000EH     UNIT         ?PR?OLED_DISPLAY_OFF?OLED
            CODE    1CE8H     000DH     UNIT         ?PR?IAPIDLE?EEPROM
            CODE    1CF5H     000AH     UNIT         ?PR?I2C_STOP?OLED
            CODE    1CFFH     000AH     UNIT         ?PR?BUZZER_PIN_INIT?BEEP
            CODE    1D09H     0009H     UNIT         ?PR?IIC_DELAY?OLED
            CODE    1D12H     0008H     UNIT         ?PR?_UARTSEND?UART
            CODE    1D1AH     0008H     UNIT         ?PR?_PUTCHAR?UART



OVERLAY MAP OF MODULE:   .\Objects\test (?C_STARTUP)


SEGMENT                               BIT_GROUP          DATA_GROUP 
  +--> CALLED SEGMENT              START    LENGTH     START    LENGTH
----------------------------------------------------------------------
?C_C51STARTUP                      -----    -----      -----    -----
  +--> ?PR?MAIN?MAIN
  +--> ?C_INITSEG

?PR?MAIN?MAIN                      -----    -----      -----    -----
BL51 BANKED LINKER/LOCATER V6.22.4.0                                                  05/25/2025  13:09:47  PAGE 3


  +--> ?PR?UARTINIT?UART
  +--> ?PR?OLED_INIT?OLED
  +--> ?PR?_OLED_COLORTURN?OLED
  +--> ?PR?_OLED_DISPLAYTURN?OLED
  +--> ?CO?MAIN
  +--> ?PR?PRINTF?PRINTF
  +--> ?PR?_OLED_SHOWSTRING?OLED

?PR?OLED_INIT?OLED                 -----    -----      -----    -----
  +--> ?PR?_DELAY_MS?DELAY
  +--> ?PR?_OLED_WR_BYTE?OLED
  +--> ?PR?OLED_CLEAR?OLED

?PR?_DELAY_MS?DELAY                -----    -----      -----    -----
  +--> ?PR?_DELAY_US?DELAY

?PR?_OLED_WR_BYTE?OLED             -----    -----      -----    -----
  +--> ?PR?I2C_START?OLED
  +--> ?PR?_SEND_BYTE?OLED
  +--> ?PR?I2C_WAITACK?OLED
  +--> ?PR?I2C_STOP?OLED

?PR?I2C_START?OLED                 -----    -----      -----    -----
  +--> ?PR?IIC_DELAY?OLED

?PR?_SEND_BYTE?OLED                -----    -----      -----    -----
  +--> ?PR?IIC_DELAY?OLED

?PR?I2C_WAITACK?OLED               -----    -----      -----    -----
  +--> ?PR?IIC_DELAY?OLED

?PR?I2C_STOP?OLED                  -----    -----      -----    -----
  +--> ?PR?IIC_DELAY?OLED

?PR?OLED_CLEAR?OLED                -----    -----      0008H    0001H
  +--> ?PR?_OLED_WR_BYTE?OLED

?PR?_OLED_COLORTURN?OLED           -----    -----      0008H    0001H
  +--> ?PR?_OLED_WR_BYTE?OLED

?PR?_OLED_DISPLAYTURN?OLED         -----    -----      0008H    0001H
  +--> ?PR?_OLED_WR_BYTE?OLED

?PR?PRINTF?PRINTF                  0020H.0  0001H.1    0008H    0014H
  +--> ?PR?_PUTCHAR?UART

?PR?_OLED_SHOWSTRING?OLED          -----    -----      0008H    0007H
  +--> ?PR?_OLED_SHOWCHAR?OLED

?PR?_OLED_SHOWCHAR?OLED            -----    -----      000FH    000AH
  +--> ?PR?_OLED_SET_POS?OLED
  +--> ?CO?OLED
  +--> ?PR?_OLED_WR_BYTE?OLED

?PR?_OLED_SET_POS?OLED             -----    -----      -----    -----
  +--> ?PR?_OLED_WR_BYTE?OLED

BL51 BANKED LINKER/LOCATER V6.22.4.0                                                  05/25/2025  13:09:47  PAGE 4




SYMBOL TABLE OF MODULE:  .\Objects\test (?C_STARTUP)

  VALUE           TYPE          NAME
  ----------------------------------

  -------         MODULE        ?C_STARTUP
  C:17B8H         SEGMENT       ?C_C51STARTUP
  I:005DH         SEGMENT       ?STACK
  C:0000H         PUBLIC        ?C_STARTUP
  D:00E0H         SYMBOL        ACC
  D:00F0H         SYMBOL        B
  D:0083H         SYMBOL        DPH
  D:0082H         SYMBOL        DPL
  N:0000H         SYMBOL        IBPSTACK
  N:0100H         SYMBOL        IBPSTACKTOP
  N:0080H         SYMBOL        IDATALEN
  C:17BBH         SYMBOL        IDATALOOP
  N:0000H         SYMBOL        PBPSTACK
  N:0100H         SYMBOL        PBPSTACKTOP
  N:0000H         SYMBOL        PDATALEN
  N:0000H         SYMBOL        PDATASTART
  N:0000H         SYMBOL        PPAGE
  N:0000H         SYMBOL        PPAGEENABLE
  D:00A0H         SYMBOL        PPAGE_SFR
  D:0081H         SYMBOL        SP
  C:17B8H         SYMBOL        STARTUP1
  N:0000H         SYMBOL        XBPSTACK
  N:0000H         SYMBOL        XBPSTACKTOP
  N:0000H         SYMBOL        XDATALEN
  N:0000H         SYMBOL        XDATASTART
  C:0000H         LINE#         126
  C:17B8H         LINE#         133
  C:17BAH         LINE#         134
  C:17BBH         LINE#         135
  C:17BCH         LINE#         136
  C:17BEH         LINE#         185
  C:17C1H         LINE#         196
  -------         ENDMOD        ?C_STARTUP

  -------         MODULE        MAIN
  C:0000H         SYMBOL        _ICE_DUMMY_
  D:0080H         PUBLIC        P0
  D:00B2H         PUBLIC        P3M0
  D:0090H         PUBLIC        P1
  D:00B1H         PUBLIC        P3M1
  D:00A0H         PUBLIC        P2
  D:00B0H         PUBLIC        P3
  D:00C0H         PUBLIC        P4
  D:00C8H         PUBLIC        P5
  D:00E8H         PUBLIC        P6
  D:00F8H         PUBLIC        P7
  D:00A8H         PUBLIC        IE
  C:0BF5H         PUBLIC        BMP1
  D:00B8H         PUBLIC        IP
  D:00D8H         PUBLIC        CCON
BL51 BANKED LINKER/LOCATER V6.22.4.0                                                  05/25/2025  13:09:47  PAGE 5


  C:1A09H         PUBLIC        main
  D:0098H         PUBLIC        SCON
  D:0088H         PUBLIC        TCON
  D:001FH         PUBLIC        t
  D:00D0H         PUBLIC        PSW
  -------         PROC          MAIN
  C:1A09H         LINE#         11
  C:1A09H         LINE#         12
  C:1A09H         LINE#         13
  C:1A0CH         LINE#         14
  C:1A0FH         LINE#         18
  C:1A12H         LINE#         19
  C:1A15H         LINE#         22
  C:1A18H         LINE#         23
  C:1A1BH         LINE#         26
  C:1A1EH         LINE#         27
  C:1A21H         LINE#         28
  C:1A26H         LINE#         29
  C:1A2BH         LINE#         30
  C:1A34H         LINE#         31
  C:1A34H         LINE#         32
  C:1A34H         LINE#         47
  C:1A44H         LINE#         56
  -------         ENDPROC       MAIN
  -------         ENDMOD        MAIN

  -------         MODULE        UART
  C:0000H         SYMBOL        _ICE_DUMMY_
  D:0080H         PUBLIC        P0
  D:0090H         PUBLIC        P1
  D:00A0H         PUBLIC        P2
  D:00B0H         PUBLIC        P3
  D:00C0H         PUBLIC        P4
  D:00C8H         PUBLIC        P5
  D:00E8H         PUBLIC        P6
  D:00F8H         PUBLIC        P7
  D:00A8H         PUBLIC        IE
  D:00B8H         PUBLIC        IP
  B:0098H.0       PUBLIC        RI
  B:0098H.1       PUBLIC        TI
  D:00D8H         PUBLIC        CCON
  C:1D12H         PUBLIC        _UartSend
  D:0099H         PUBLIC        SBUF
  D:0098H         PUBLIC        SCON
  C:1C3DH         PUBLIC        UartInit
  D:0089H         PUBLIC        TMOD
  D:0088H         PUBLIC        TCON
  D:008EH         PUBLIC        AUXR
  B:0021H.1       PUBLIC        busy
  D:0022H         PUBLIC        rptr
  D:008DH         PUBLIC        TH1
  C:1AB5H         PUBLIC        UartIsr
  D:0023H         PUBLIC        wptr
  D:008BH         PUBLIC        TL1
  B:0088H.6       PUBLIC        TR1
  C:1B7DH         PUBLIC        _UartSendStr
  D:00D0H         PUBLIC        PSW
BL51 BANKED LINKER/LOCATER V6.22.4.0                                                  05/25/2025  13:09:47  PAGE 6


  C:1D1AH         PUBLIC        _putchar
  D:0024H         PUBLIC        buffer
  -------         PROC          UARTINIT
  C:1C3DH         LINE#         12
  C:1C3DH         LINE#         13
  C:1C3DH         LINE#         15
  C:1C40H         LINE#         16
  C:1C43H         LINE#         17
  C:1C46H         LINE#         18
  C:1C49H         LINE#         19
  C:1C4BH         LINE#         20
  C:1C4EH         LINE#         21
  C:1C50H         LINE#         22
  C:1C52H         LINE#         23
  C:1C54H         LINE#         24
  -------         ENDPROC       UARTINIT
  -------         PROC          _UARTSEND
  D:0007H         SYMBOL        dat
  C:1D12H         LINE#         25
  C:1D12H         LINE#         26
  C:1D12H         LINE#         27
  C:1D15H         LINE#         28
  C:1D17H         LINE#         29
  C:1D19H         LINE#         30
  -------         ENDPROC       _UARTSEND
  -------         PROC          _UARTSENDSTR
  D:001CH         SYMBOL        p
  C:1B7DH         LINE#         31
  C:1B83H         LINE#         32
  C:1B83H         LINE#         33
  C:1B8EH         LINE#         34
  C:1B8EH         LINE#         35
  C:1B9FH         LINE#         36
  C:1BA1H         LINE#         37
  -------         ENDPROC       _UARTSENDSTR
  -------         PROC          UARTISR
  C:1AB5H         LINE#         40
  C:1AC0H         LINE#         42
  C:1AC3H         LINE#         43
  C:1AC3H         LINE#         44
  C:1AC5H         LINE#         45
  C:1AC7H         LINE#         46
  C:1AC7H         LINE#         47
  C:1ACAH         LINE#         48
  C:1ACAH         LINE#         49
  C:1ACCH         LINE#         50
  C:1AD6H         LINE#         51
  C:1AD9H         LINE#         52
  C:1AD9H         LINE#         53
  -------         ENDPROC       UARTISR
  -------         PROC          _PUTCHAR
  D:0007H         SYMBOL        ch
  C:1D1AH         LINE#         55
  C:1D1AH         LINE#         56
  C:1D1AH         LINE#         57
  C:1D1CH         LINE#         58
  C:1D1FH         LINE#         59
BL51 BANKED LINKER/LOCATER V6.22.4.0                                                  05/25/2025  13:09:47  PAGE 7


  C:1D21H         LINE#         60
  C:1D21H         LINE#         61
  -------         ENDPROC       _PUTCHAR
  -------         ENDMOD        UART

  -------         MODULE        DELAY
  C:0000H         SYMBOL        _ICE_DUMMY_
  D:0080H         PUBLIC        P0
  D:0090H         PUBLIC        P1
  D:00A0H         PUBLIC        P2
  D:00B0H         PUBLIC        P3
  D:00C0H         PUBLIC        P4
  D:00C8H         PUBLIC        P5
  D:00E8H         PUBLIC        P6
  D:00F8H         PUBLIC        P7
  D:00A8H         PUBLIC        IE
  D:00B8H         PUBLIC        IP
  D:00D8H         PUBLIC        CCON
  C:1C55H         PUBLIC        _Delay_ms
  D:0098H         PUBLIC        SCON
  D:0088H         PUBLIC        TCON
  C:1C0AH         PUBLIC        _Delay_us
  D:00D0H         PUBLIC        PSW
  -------         PROC          _DELAY_US
  D:0006H         SYMBOL        us
  C:1C0AH         LINE#         3
  C:1C0AH         LINE#         4
  C:1C0AH         LINE#         5
  C:1C14H         LINE#         6
  C:1C18H         LINE#         7
  C:1C1CH         LINE#         8
  C:1C20H         LINE#         9
  C:1C21H         LINE#         10
  C:1C23H         LINE#         11
  -------         ENDPROC       _DELAY_US
  -------         PROC          _DELAY_MS
  D:0002H         SYMBOL        ms
  C:1C55H         LINE#         13
  C:1C59H         LINE#         14
  C:1C59H         LINE#         15
  C:1C63H         LINE#         16
  C:1C6AH         LINE#         17
  C:1C6CH         LINE#         18
  -------         ENDPROC       _DELAY_MS
  -------         ENDMOD        DELAY

  -------         MODULE        EEPROM
  C:0000H         SYMBOL        _ICE_DUMMY_
  D:0080H         PUBLIC        P0
  D:0090H         PUBLIC        P1
  D:00A0H         PUBLIC        P2
  D:00B0H         PUBLIC        P3
  D:00C0H         PUBLIC        P4
  D:00C8H         PUBLIC        P5
  D:00E8H         PUBLIC        P6
  B:00A8H.7       PUBLIC        EA
  D:00F8H         PUBLIC        P7
BL51 BANKED LINKER/LOCATER V6.22.4.0                                                  05/25/2025  13:09:47  PAGE 8


  D:00A8H         PUBLIC        IE
  C:1B31H         PUBLIC        _IapErase
  D:00C5H         PUBLIC        IAP_CMD
  D:00B8H         PUBLIC        IP
  C:0003H         PUBLIC        _IapRead
  C:1CE8H         SYMBOL        IapIdle
  D:00C3H         PUBLIC        IAP_ADDRH
  D:00D8H         PUBLIC        CCON
  D:00C4H         PUBLIC        IAP_ADDRL
  C:1C9AH         PUBLIC        _IapSafeWrite
  D:00F5H         PUBLIC        IAP_TPS
  D:0098H         PUBLIC        SCON
  D:0088H         PUBLIC        TCON
  D:00C7H         PUBLIC        IAP_CONTR
  D:00C2H         PUBLIC        IAP_DATA
  D:00C6H         PUBLIC        IAP_TRIG
  C:1AE2H         PUBLIC        _IapProgram
  D:00D0H         PUBLIC        PSW
  -------         PROC          IAPIDLE
  C:1CE8H         LINE#         4
  C:1CE8H         LINE#         5
  C:1CE8H         LINE#         6
  C:1CEBH         LINE#         7
  C:1CEDH         LINE#         8
  C:1CEFH         LINE#         9
  C:1CF2H         LINE#         10
  C:1CF4H         LINE#         11
  -------         ENDPROC       IAPIDLE
  -------         PROC          _IAPREAD
  D:0006H         SYMBOL        addr
  -------         DO            
  D:0007H         SYMBOL        dat
  -------         ENDDO         
  C:0003H         LINE#         13
  C:0003H         LINE#         14
  C:0003H         LINE#         16
  C:0006H         LINE#         17
  C:0009H         LINE#         18
  C:000CH         LINE#         19
  C:000EH         LINE#         20
  C:0012H         LINE#         21
  C:0015H         LINE#         22
  C:0018H         LINE#         23
  C:0019H         LINE#         24
  C:001BH         LINE#         25
  -------         ENDPROC       _IAPREAD
  -------         PROC          _IAPPROGRAM
  D:0006H         SYMBOL        addr
  D:0005H         SYMBOL        dat
  -------         DO            
  D:0001H         SYMBOL        EA_SAVE
  -------         ENDDO         
  C:1AE2H         LINE#         29
  C:1AE2H         LINE#         30
  C:1AE2H         LINE#         31
  C:1AE7H         LINE#         32
  C:1AE9H         LINE#         34
BL51 BANKED LINKER/LOCATER V6.22.4.0                                                  05/25/2025  13:09:47  PAGE 9


  C:1AECH         LINE#         35
  C:1AEFH         LINE#         36
  C:1AF2H         LINE#         37
  C:1AF4H         LINE#         38
  C:1AF8H         LINE#         39
  C:1AFAH         LINE#         40
  C:1AFDH         LINE#         41
  C:1B00H         LINE#         42
  C:1B01H         LINE#         44
  C:1B04H         LINE#         45
  C:1B09H         LINE#         46
  -------         ENDPROC       _IAPPROGRAM
  -------         PROC          _IAPERASE
  D:0006H         SYMBOL        addr
  -------         DO            
  D:0005H         SYMBOL        EA_SAVE
  -------         ENDDO         
  C:1B31H         LINE#         48
  C:1B31H         LINE#         49
  C:1B31H         LINE#         50
  C:1B36H         LINE#         51
  C:1B38H         LINE#         53
  C:1B3BH         LINE#         54
  C:1B3EH         LINE#         55
  C:1B41H         LINE#         56
  C:1B43H         LINE#         57
  C:1B47H         LINE#         58
  C:1B4AH         LINE#         59
  C:1B4DH         LINE#         60
  C:1B4EH         LINE#         62
  C:1B51H         LINE#         63
  C:1B56H         LINE#         64
  -------         ENDPROC       _IAPERASE
  -------         PROC          _IAPSAFEWRITE
  D:0002H         SYMBOL        addr
  D:0005H         SYMBOL        dat
  C:1C9AH         LINE#         67
  C:1C9EH         LINE#         68
  C:1C9EH         LINE#         69
  C:1CA5H         LINE#         70
  C:1CA5H         LINE#         71
  C:1CAAH         LINE#         72
  C:1CAAH         LINE#         73
  -------         ENDPROC       _IAPSAFEWRITE
  -------         ENDMOD        EEPROM

  -------         MODULE        OLED
  C:0000H         SYMBOL        _ICE_DUMMY_
  C:1C85H         PUBLIC        OLED_Display_On
  D:0080H         PUBLIC        P0
  D:0090H         PUBLIC        P1
  D:00A0H         PUBLIC        P2
  C:1BA2H         PUBLIC        _Send_Byte
  D:00B0H         PUBLIC        P3
  D:00C0H         PUBLIC        P4
  D:00C8H         PUBLIC        P5
  D:00E8H         PUBLIC        P6
BL51 BANKED LINKER/LOCATER V6.22.4.0                                                  05/25/2025  13:09:47  PAGE 10


  D:00F8H         PUBLIC        P7
  C:1B0AH         PUBLIC        _OLED_DisplayTurn
  D:00A8H         PUBLIC        IE
  C:091EH         PUBLIC        asc2_3216
  D:00B8H         PUBLIC        IP
  C:0026H         PUBLIC        asc2_0806
  C:024EH         PUBLIC        asc2_1608
  C:165AH         PUBLIC        OLED_Init
  D:00D8H         PUBLIC        CCON
  C:19C0H         PUBLIC        _OLED_ShowString
  C:1A8CH         PUBLIC        _OLED_WR_Byte
  C:1574H         PUBLIC        _OLED_ShowChar
  C:083EH         PUBLIC        Hzk
  C:1CBCH         PUBLIC        I2C_Start
  C:1C24H         PUBLIC        _OLED_ColorTurn
  D:0098H         PUBLIC        SCON
  D:0088H         PUBLIC        TCON
  C:1CCBH         PUBLIC        I2C_WaitAck
  C:1CF5H         PUBLIC        I2C_Stop
  C:1BE8H         PUBLIC        _OLED_Set_Pos
  C:1D09H         PUBLIC        IIC_delay
  C:18CFH         PUBLIC        _OLED_ShowNum
  C:1CDAH         PUBLIC        OLED_Display_Off
  C:1C6DH         PUBLIC        _oled_pow
  B:00B0H.2       PUBLIC        OLED_SDA
  B:00B0H.3       PUBLIC        OLED_SCL
  C:1844H         PUBLIC        _OLED_ShowChinese
  C:1BC5H         PUBLIC        OLED_Clear
  B:0090H.2       PUBLIC        OLED_RES
  C:1958H         PUBLIC        _OLED_DrawBMP
  D:00D0H         PUBLIC        PSW
  -------         PROC          _OLED_COLORTURN
  D:0008H         SYMBOL        i
  C:1C24H         LINE#         17
  C:1C26H         LINE#         18
  C:1C26H         LINE#         19
  C:1C2AH         LINE#         20
  C:1C2AH         LINE#         21
  C:1C30H         LINE#         22
  C:1C30H         LINE#         23
  C:1C35H         LINE#         24
  C:1C35H         LINE#         25
  C:1C3CH         LINE#         26
  C:1C3CH         LINE#         27
  -------         ENDPROC       _OLED_COLORTURN
  -------         PROC          _OLED_DISPLAYTURN
  D:0008H         SYMBOL        i
  C:1B0AH         LINE#         30
  C:1B0CH         LINE#         31
  C:1B0CH         LINE#         32
  C:1B10H         LINE#         33
  C:1B10H         LINE#         34
  C:1B16H         LINE#         35
  C:1B1DH         LINE#         36
  C:1B1DH         LINE#         37
  C:1B22H         LINE#         38
  C:1B22H         LINE#         39
BL51 BANKED LINKER/LOCATER V6.22.4.0                                                  05/25/2025  13:09:47  PAGE 11


  C:1B29H         LINE#         40
  C:1B30H         LINE#         41
  C:1B30H         LINE#         42
  -------         ENDPROC       _OLED_DISPLAYTURN
  -------         PROC          IIC_DELAY
  -------         DO            
  D:0007H         SYMBOL        t
  -------         ENDDO         
  C:1D09H         LINE#         45
  C:1D09H         LINE#         46
  C:1D09H         LINE#         47
  C:1D0BH         LINE#         48
  C:1D11H         LINE#         49
  -------         ENDPROC       IIC_DELAY
  -------         PROC          I2C_START
  C:1CBCH         LINE#         52
  C:1CBCH         LINE#         53
  C:1CBCH         LINE#         54
  C:1CBEH         LINE#         55
  C:1CC0H         LINE#         56
  C:1CC3H         LINE#         57
  C:1CC5H         LINE#         58
  C:1CC8H         LINE#         59
  C:1CCAH         LINE#         61
  -------         ENDPROC       I2C_START
  -------         PROC          I2C_STOP
  C:1CF5H         LINE#         64
  C:1CF5H         LINE#         65
  C:1CF5H         LINE#         66
  C:1CF7H         LINE#         67
  C:1CF9H         LINE#         68
  C:1CFCH         LINE#         69
  C:1CFEH         LINE#         70
  -------         ENDPROC       I2C_STOP
  -------         PROC          I2C_WAITACK
  C:1CCBH         LINE#         73
  C:1CCBH         LINE#         74
  C:1CCBH         LINE#         75
  C:1CCDH         LINE#         76
  C:1CD0H         LINE#         77
  C:1CD2H         LINE#         78
  C:1CD5H         LINE#         79
  C:1CD7H         LINE#         80
  -------         ENDPROC       I2C_WAITACK
  -------         PROC          _SEND_BYTE
  D:0005H         SYMBOL        dat
  -------         DO            
  D:0004H         SYMBOL        i
  -------         ENDDO         
  C:1BA2H         LINE#         84
  C:1BA4H         LINE#         85
  C:1BA4H         LINE#         87
  C:1BA6H         LINE#         88
  C:1BA6H         LINE#         89
  C:1BA8H         LINE#         90
  C:1BACH         LINE#         91
  C:1BACH         LINE#         92
BL51 BANKED LINKER/LOCATER V6.22.4.0                                                  05/25/2025  13:09:47  PAGE 12


  C:1BAEH         LINE#         93
  C:1BB0H         LINE#         95
  C:1BB0H         LINE#         96
  C:1BB2H         LINE#         97
  C:1BB2H         LINE#         98
  C:1BB5H         LINE#         99
  C:1BB7H         LINE#         100
  C:1BBAH         LINE#         101
  C:1BBCH         LINE#         102
  C:1BC0H         LINE#         103
  C:1BC4H         LINE#         104
  -------         ENDPROC       _SEND_BYTE
  C:1A85H         SYMBOL        L?0091
  -------         PROC          L?0090
  -------         ENDPROC       L?0090
  C:1A85H         SYMBOL        L?0091
  -------         PROC          _OLED_WR_BYTE
  D:0002H         SYMBOL        dat
  D:0003H         SYMBOL        mode
  C:1A8CH         LINE#         109
  C:1A90H         LINE#         110
  C:1A90H         LINE#         111
  C:1A93H         LINE#         112
  C:1A98H         LINE#         113
  C:1A9BH         LINE#         114
  C:1AA2H         LINE#         115
  C:1AA7H         LINE#         116
  C:1AAAH         LINE#         117
  C:1AAFH         LINE#         118
  C:1AB2H         LINE#         119
  -------         ENDPROC       _OLED_WR_BYTE
  -------         PROC          _OLED_SET_POS
  D:0001H         SYMBOL        x
  D:0005H         SYMBOL        y
  C:1BE8H         LINE#         189
  C:1BEAH         LINE#         190
  C:1BEAH         LINE#         191
  C:1BF3H         LINE#         192
  C:1C01H         LINE#         193
  -------         ENDPROC       _OLED_SET_POS
  -------         PROC          OLED_DISPLAY_ON
  C:1C85H         LINE#         196
  C:1C85H         LINE#         197
  C:1C85H         LINE#         198
  C:1C8CH         LINE#         199
  C:1C93H         LINE#         200
  -------         ENDPROC       OLED_DISPLAY_ON
  -------         PROC          OLED_DISPLAY_OFF
  C:1CDAH         LINE#         203
  C:1CDAH         LINE#         204
  C:1CDAH         LINE#         205
  C:1CDEH         LINE#         206
  C:1CE1H         LINE#         207
  -------         ENDPROC       OLED_DISPLAY_OFF
  -------         PROC          OLED_CLEAR
  -------         DO            
  D:0001H         SYMBOL        i
BL51 BANKED LINKER/LOCATER V6.22.4.0                                                  05/25/2025  13:09:47  PAGE 13


  D:0008H         SYMBOL        n
  -------         ENDDO         
  C:1BC5H         LINE#         210
  C:1BC5H         LINE#         211
  C:1BC5H         LINE#         213
  C:1BC7H         LINE#         214
  C:1BC7H         LINE#         215
  C:1BCDH         LINE#         216
  C:1BCDH         LINE#         217
  C:1BD0H         LINE#         218
  C:1BE3H         LINE#         219
  C:1BE7H         LINE#         220
  -------         ENDPROC       OLED_CLEAR
  -------         PROC          _OLED_SHOWCHAR
  D:000FH         SYMBOL        x
  D:0010H         SYMBOL        y
  D:0003H         SYMBOL        chr
  D:0012H         SYMBOL        sizey
  -------         DO            
  D:0013H         SYMBOL        c
  D:0014H         SYMBOL        sizex
  D:0015H         SYMBOL        i
  D:0017H         SYMBOL        size1
  -------         ENDDO         
  C:1574H         LINE#         226
  C:1578H         LINE#         227
  C:1578H         LINE#         228
  C:1582H         LINE#         229
  C:1587H         LINE#         230
  C:1594H         LINE#         231
  C:15BDH         LINE#         232
  C:15C2H         LINE#         233
  C:15C9H         LINE#         234
  C:15DCH         LINE#         235
  C:15DCH         LINE#         236
  C:15FBH         LINE#         237
  C:1610H         LINE#         238
  C:1625H         LINE#         239
  C:164EH         LINE#         241
  C:1659H         LINE#         242
  -------         ENDPROC       _OLED_SHOWCHAR
  -------         PROC          _OLED_POW
  D:005CH         SYMBOL        m
  D:0001H         SYMBOL        n
  -------         DO            
  D:0006H         SYMBOL        result
  -------         ENDDO         
  C:1C6DH         LINE#         244
  C:1C71H         LINE#         245
  C:1C71H         LINE#         246
  C:1C75H         LINE#         247
  C:1C84H         LINE#         248
  C:1C84H         LINE#         249
  -------         ENDPROC       _OLED_POW
  -------         PROC          _OLED_SHOWNUM
  D:003FH         SYMBOL        x
  D:0040H         SYMBOL        y
BL51 BANKED LINKER/LOCATER V6.22.4.0                                                  05/25/2025  13:09:47  PAGE 14


  D:0041H         SYMBOL        num
  D:0043H         SYMBOL        len
  D:0044H         SYMBOL        sizey
  -------         DO            
  D:0045H         SYMBOL        t
  D:0046H         SYMBOL        temp
  D:0047H         SYMBOL        m
  D:0048H         SYMBOL        enshow
  -------         ENDDO         
  C:18CFH         LINE#         255
  C:18D7H         LINE#         256
  C:18D7H         LINE#         257
  C:18DAH         LINE#         258
  C:18DCH         LINE#         259
  C:18E4H         LINE#         260
  C:18EEH         LINE#         261
  C:18EEH         LINE#         262
  C:1910H         LINE#         263
  C:191EH         LINE#         264
  C:191EH         LINE#         265
  C:1922H         LINE#         266
  C:1922H         LINE#         267
  C:1934H         LINE#         268
  C:1936H         LINE#         269
  C:1939H         LINE#         270
  C:1939H         LINE#         271
  C:1953H         LINE#         272
  C:1957H         LINE#         273
  -------         ENDPROC       _OLED_SHOWNUM
  -------         PROC          _OLED_SHOWSTRING
  D:0008H         SYMBOL        x
  D:0009H         SYMBOL        y
  D:000AH         SYMBOL        chr
  D:000DH         SYMBOL        sizey
  -------         DO            
  D:000EH         SYMBOL        j
  -------         ENDDO         
  C:19C0H         LINE#         275
  C:19CAH         LINE#         276
  C:19CAH         LINE#         277
  C:19CDH         LINE#         278
  C:19DEH         LINE#         279
  C:19DEH         LINE#         280
  C:19F5H         LINE#         281
  C:19FEH         LINE#         282
  C:1A06H         LINE#         283
  C:1A08H         LINE#         284
  -------         ENDPROC       _OLED_SHOWSTRING
  -------         PROC          _OLED_SHOWCHINESE
  D:0052H         SYMBOL        x
  D:0053H         SYMBOL        y
  D:0054H         SYMBOL        no
  D:0055H         SYMBOL        sizey
  -------         DO            
  D:0056H         SYMBOL        i
  D:0058H         SYMBOL        size1
  -------         ENDDO         
BL51 BANKED LINKER/LOCATER V6.22.4.0                                                  05/25/2025  13:09:47  PAGE 15


  C:1844H         LINE#         286
  C:184AH         LINE#         287
  C:184AH         LINE#         288
  C:1873H         LINE#         289
  C:1883H         LINE#         290
  C:1883H         LINE#         291
  C:189CH         LINE#         292
  C:18C4H         LINE#         295
  C:18CEH         LINE#         296
  -------         ENDPROC       _OLED_SHOWCHINESE
  -------         PROC          _OLED_DRAWBMP
  D:0034H         SYMBOL        x
  D:0035H         SYMBOL        y
  D:0036H         SYMBOL        sizex
  D:0037H         SYMBOL        sizey
  D:0038H         SYMBOL        BMP
  -------         DO            
  D:003BH         SYMBOL        j
  D:003DH         SYMBOL        i
  D:003EH         SYMBOL        m
  -------         ENDDO         
  C:1958H         LINE#         303
  C:195EH         LINE#         304
  C:195EH         LINE#         305
  C:1963H         LINE#         307
  C:197BH         LINE#         308
  C:1985H         LINE#         309
  C:1985H         LINE#         310
  C:198FH         LINE#         311
  C:1999H         LINE#         312
  C:1999H         LINE#         313
  C:19B7H         LINE#         314
  C:19BBH         LINE#         315
  C:19BFH         LINE#         316
  -------         ENDPROC       _OLED_DRAWBMP
  -------         PROC          OLED_INIT
  C:165AH         LINE#         321
  C:165AH         LINE#         322
  C:165AH         LINE#         323
  C:165CH         LINE#         324
  C:1663H         LINE#         325
  C:1665H         LINE#         327
  C:1669H         LINE#         328
  C:1669H         LINE#         329
  C:166CH         LINE#         330
  C:1673H         LINE#         331
  C:167AH         LINE#         332
  C:1681H         LINE#         333
  C:1688H         LINE#         334
  C:168FH         LINE#         335
  C:1696H         LINE#         336
  C:169DH         LINE#         337
  C:16A4H         LINE#         338
  C:16ABH         LINE#         339
  C:16B1H         LINE#         340
  C:16B8H         LINE#         341
  C:16BFH         LINE#         342
BL51 BANKED LINKER/LOCATER V6.22.4.0                                                  05/25/2025  13:09:47  PAGE 16


  C:16C6H         LINE#         343
  C:16CDH         LINE#         344
  C:16D4H         LINE#         345
  C:16DBH         LINE#         346
  C:16E2H         LINE#         347
  C:16E9H         LINE#         348
  C:16F0H         LINE#         349
  C:16F7H         LINE#         350
  C:16FEH         LINE#         351
  C:1705H         LINE#         352
  C:170CH         LINE#         353
  C:1713H         LINE#         354
  C:1716H         LINE#         355
  -------         ENDPROC       OLED_INIT
  -------         ENDMOD        OLED

  -------         MODULE        BEEP
  C:0000H         SYMBOL        _ICE_DUMMY_
  D:0080H         PUBLIC        P0
  D:00B2H         PUBLIC        P3M0
  D:0090H         PUBLIC        P1
  D:00B1H         PUBLIC        P3M1
  D:00A0H         PUBLIC        P2
  D:00B0H         PUBLIC        P3
  D:00C0H         PUBLIC        P4
  D:00C8H         PUBLIC        P5
  C:1CFFH         PUBLIC        Buzzer_Pin_Init
  D:00E8H         PUBLIC        P6
  D:00F8H         PUBLIC        P7
  D:00F9H         PUBLIC        CH
  D:00A2H         PUBLIC        P_SW1
  D:00A8H         PUBLIC        IE
  D:00E9H         PUBLIC        CL
  D:00FAH         PUBLIC        CCAP0H
  C:171DH         PUBLIC        _Buzzer_Set
  D:00EAH         PUBLIC        CCAP0L
  B:00D8H.6       PUBLIC        CR
  D:00DAH         PUBLIC        CCAPM0
  D:00B8H         PUBLIC        IP
  D:00D9H         PUBLIC        CMOD
  D:00D8H         PUBLIC        CCON
  D:0098H         PUBLIC        SCON
  D:0088H         PUBLIC        TCON
  D:00F2H         PUBLIC        PCA_PWM0
  C:1A46H         PUBLIC        Play_Melody
  C:1CABH         PUBLIC        PWM_Init
  C:1B61H         PUBLIC        _Beep_Note
  D:00D0H         PUBLIC        PSW
  -------         PROC          BUZZER_PIN_INIT
  C:1CFFH         LINE#         5
  C:1CFFH         LINE#         6
  C:1CFFH         LINE#         7
  C:1D02H         LINE#         8
  C:1D05H         LINE#         9
  C:1D08H         LINE#         10
  -------         ENDPROC       BUZZER_PIN_INIT
  -------         PROC          PWM_INIT
BL51 BANKED LINKER/LOCATER V6.22.4.0                                                  05/25/2025  13:09:47  PAGE 17


  C:1CABH         LINE#         13
  C:1CABH         LINE#         14
  C:1CABH         LINE#         15
  C:1CAEH         LINE#         16
  C:1CB0H         LINE#         17
  C:1CB2H         LINE#         18
  C:1CB4H         LINE#         20
  C:1CB7H         LINE#         21
  C:1CB9H         LINE#         22
  C:1CBBH         LINE#         23
  -------         ENDPROC       PWM_INIT
  -------         PROC          _BUZZER_SET
  D:0002H         SYMBOL        freq
  D:0049H         SYMBOL        volume
  -------         DO            
  D:004AH         SYMBOL        pwm_clock
  D:004EH         SYMBOL        period
  D:0007H         SYMBOL        duty
  -------         ENDDO         
  C:171DH         LINE#         27
  C:1723H         LINE#         28
  C:1723H         LINE#         29
  C:172FH         LINE#         33
  C:1737H         LINE#         34
  C:173AH         LINE#         35
  C:173EH         LINE#         37
  C:173EH         LINE#         39
  C:1754H         LINE#         40
  C:1772H         LINE#         41
  C:1790H         LINE#         43
  C:17B3H         LINE#         45
  C:17B5H         LINE#         46
  C:17B7H         LINE#         47
  -------         ENDPROC       _BUZZER_SET
  C:1B59H         SYMBOL        L?0011
  -------         PROC          L?0010
  -------         ENDPROC       L?0010
  C:1B59H         SYMBOL        L?0011
  -------         PROC          _BEEP_NOTE
  D:0006H         SYMBOL        freq
  D:0005H         SYMBOL        volume
  D:005AH         SYMBOL        duration_ms
  C:1B61H         LINE#         50
  C:1B65H         LINE#         51
  C:1B65H         LINE#         52
  C:1B68H         LINE#         53
  C:1B6FH         LINE#         54
  C:1B76H         LINE#         55
  -------         ENDPROC       _BEEP_NOTE
  -------         PROC          PLAY_MELODY
  C:1A46H         LINE#         59
  C:1A46H         LINE#         60
  C:1A46H         LINE#         62
  C:1A4BH         LINE#         63
  C:1A58H         LINE#         64
  C:1A5BH         LINE#         65
  C:1A68H         LINE#         66
BL51 BANKED LINKER/LOCATER V6.22.4.0                                                  05/25/2025  13:09:47  PAGE 18


  C:1A6BH         LINE#         67
  C:1A78H         LINE#         68
  -------         ENDPROC       PLAY_MELODY
  -------         ENDMOD        BEEP

  -------         MODULE        ?C?CLDPTR
  C:1351H         PUBLIC        ?C?CLDPTR
  -------         ENDMOD        ?C?CLDPTR

  -------         MODULE        ?C?CLDOPTR
  C:136AH         PUBLIC        ?C?CLDOPTR
  -------         ENDMOD        ?C?CLDOPTR

  -------         MODULE        ?C?IMUL
  C:1397H         PUBLIC        ?C?IMUL
  -------         ENDMOD        ?C?IMUL

  -------         MODULE        ?C?UIDIV
  C:13A9H         PUBLIC        ?C?UIDIV
  -------         ENDMOD        ?C?UIDIV

  -------         MODULE        ?C?LMUL
  C:13FEH         PUBLIC        ?C?LMUL
  -------         ENDMOD        ?C?LMUL

  -------         MODULE        ?C?ULDIV
  C:1489H         PUBLIC        ?C?ULDIV
  -------         ENDMOD        ?C?ULDIV

  -------         MODULE        ?C?ULCMP
  C:151BH         PUBLIC        ?C?ULCMP
  -------         ENDMOD        ?C?ULCMP

  -------         MODULE        PRINTF
  D:0008H         PUBLIC        ?_PRINTF517?BYTE
  D:0008H         PUBLIC        ?_PRINTF?BYTE
  D:0008H         PUBLIC        ?_SPRINTF517?BYTE
  D:0008H         PUBLIC        ?_SPRINTF?BYTE
  C:1057H         PUBLIC        _PRINTF
  C:1057H         PUBLIC        _PRINTF517
  C:1051H         PUBLIC        _SPRINTF
  C:1051H         PUBLIC        _SPRINTF517
  -------         ENDMOD        PRINTF

  -------         MODULE        ?C?CSTPTR
  C:152CH         PUBLIC        ?C?CSTPTR
  -------         ENDMOD        ?C?CSTPTR

  -------         MODULE        ?C?PLDIIDATA
  C:153EH         PUBLIC        ?C?PLDIIDATA
  -------         ENDMOD        ?C?PLDIIDATA

  -------         MODULE        ?C?CCASE
  C:154EH         PUBLIC        ?C?CCASE
  -------         ENDMOD        ?C?CCASE

Program Size: data=93.2 xdata=0 code=7457
BL51 BANKED LINKER/LOCATER V6.22.4.0                                                  05/25/2025  13:09:47  PAGE 19


LINK/LOCATE RUN COMPLETE.  0 WARNING(S),  0 ERROR(S)
